
kernel.elf:     file format elf64-littleriscv


Disassembly of section .text:

0000000080000000 <_start>:
    80000000:	30401073          	csrw	mie,zero
    80000004:	34401073          	csrw	mip,zero
    80000008:	f14022f3          	csrr	t0,mhartid
    8000000c:	04029363          	bnez	t0,80000052 <park_hart>
    80000010:	04405117          	auipc	sp,0x4405
    80000014:	ff010113          	addi	sp,sp,-16 # 84405000 <_stack_top>
    80000018:	00002297          	auipc	t0,0x2
    8000001c:	26028293          	addi	t0,t0,608 # 80002278 <processes>
    80000020:	00004317          	auipc	t1,0x4
    80000024:	15830313          	addi	t1,t1,344 # 80004178 <total_free>

0000000080000028 <clear_bss>:
    80000028:	00628663          	beq	t0,t1,80000034 <bss_done>
    8000002c:	0002b023          	sd	zero,0(t0)
    80000030:	02a1                	addi	t0,t0,8
    80000032:	bfdd                	j	80000028 <clear_bss>

0000000080000034 <bss_done>:
    80000034:	00000297          	auipc	t0,0x0
    80000038:	02c28293          	addi	t0,t0,44 # 80000060 <trap_vector>
    8000003c:	30529073          	csrw	mtvec,t0
    80000040:	6285                	lui	t0,0x1
    80000042:	8882829b          	addiw	t0,t0,-1912 # 888 <_start-0x7ffff778>
    80000046:	30429073          	csrw	mie,t0
    8000004a:	30001073          	csrw	mstatus,zero
    8000004e:	682000ef          	jal	800006d0 <kernel_main>

0000000080000052 <park_hart>:
    80000052:	10500073          	wfi
    80000056:	bff5                	j	80000052 <park_hart>
    80000058:	00000013          	nop
    8000005c:	00000013          	nop

0000000080000060 <trap_vector>:
    80000060:	7111                	addi	sp,sp,-256
    80000062:	e006                	sd	ra,0(sp)
    80000064:	e40a                	sd	sp,8(sp)
    80000066:	e80e                	sd	gp,16(sp)
    80000068:	ec12                	sd	tp,24(sp)
    8000006a:	f016                	sd	t0,32(sp)
    8000006c:	f41a                	sd	t1,40(sp)
    8000006e:	f81e                	sd	t2,48(sp)
    80000070:	fc22                	sd	s0,56(sp)
    80000072:	e0a6                	sd	s1,64(sp)
    80000074:	e4aa                	sd	a0,72(sp)
    80000076:	e8ae                	sd	a1,80(sp)
    80000078:	ecb2                	sd	a2,88(sp)
    8000007a:	f0b6                	sd	a3,96(sp)
    8000007c:	f4ba                	sd	a4,104(sp)
    8000007e:	f8be                	sd	a5,112(sp)
    80000080:	fcc2                	sd	a6,120(sp)
    80000082:	e146                	sd	a7,128(sp)
    80000084:	e54a                	sd	s2,136(sp)
    80000086:	e94e                	sd	s3,144(sp)
    80000088:	ed52                	sd	s4,152(sp)
    8000008a:	f156                	sd	s5,160(sp)
    8000008c:	f55a                	sd	s6,168(sp)
    8000008e:	f95e                	sd	s7,176(sp)
    80000090:	fd62                	sd	s8,184(sp)
    80000092:	e1e6                	sd	s9,192(sp)
    80000094:	e5ea                	sd	s10,200(sp)
    80000096:	e9ee                	sd	s11,208(sp)
    80000098:	edf2                	sd	t3,216(sp)
    8000009a:	f1f6                	sd	t4,224(sp)
    8000009c:	f5fa                	sd	t5,232(sp)
    8000009e:	f9fe                	sd	t6,240(sp)
    800000a0:	850a                	mv	a0,sp
    800000a2:	794000ef          	jal	80000836 <trap_handler>
    800000a6:	6082                	ld	ra,0(sp)
    800000a8:	6122                	ld	sp,8(sp)
    800000aa:	61c2                	ld	gp,16(sp)
    800000ac:	6262                	ld	tp,24(sp)
    800000ae:	7282                	ld	t0,32(sp)
    800000b0:	7322                	ld	t1,40(sp)
    800000b2:	73c2                	ld	t2,48(sp)
    800000b4:	7462                	ld	s0,56(sp)
    800000b6:	6486                	ld	s1,64(sp)
    800000b8:	6526                	ld	a0,72(sp)
    800000ba:	65c6                	ld	a1,80(sp)
    800000bc:	6666                	ld	a2,88(sp)
    800000be:	7686                	ld	a3,96(sp)
    800000c0:	7726                	ld	a4,104(sp)
    800000c2:	77c6                	ld	a5,112(sp)
    800000c4:	7866                	ld	a6,120(sp)
    800000c6:	688a                	ld	a7,128(sp)
    800000c8:	692a                	ld	s2,136(sp)
    800000ca:	69ca                	ld	s3,144(sp)
    800000cc:	6a6a                	ld	s4,152(sp)
    800000ce:	7a8a                	ld	s5,160(sp)
    800000d0:	7b2a                	ld	s6,168(sp)
    800000d2:	7bca                	ld	s7,176(sp)
    800000d4:	7c6a                	ld	s8,184(sp)
    800000d6:	6c8e                	ld	s9,192(sp)
    800000d8:	6d2e                	ld	s10,200(sp)
    800000da:	6dce                	ld	s11,208(sp)
    800000dc:	6e6e                	ld	t3,216(sp)
    800000de:	7e8e                	ld	t4,224(sp)
    800000e0:	7f2e                	ld	t5,232(sp)
    800000e2:	7fce                	ld	t6,240(sp)
    800000e4:	6111                	addi	sp,sp,256
    800000e6:	30200073          	mret
	...

00000000800000f2 <idle_process>:
    800000f2:	10500073          	wfi
    800000f6:	bff5                	j	800000f2 <idle_process>

00000000800000f8 <init_process>:
    800000f8:	1141                	addi	sp,sp,-16
    800000fa:	00001517          	auipc	a0,0x1
    800000fe:	68e50513          	addi	a0,a0,1678 # 80001788 <strcat+0x38>
    80000102:	e406                	sd	ra,8(sp)
    80000104:	09d000ef          	jal	800009a0 <uart_puts>
    80000108:	4671                	li	a2,28
    8000010a:	00001597          	auipc	a1,0x1
    8000010e:	6a658593          	addi	a1,a1,1702 # 800017b0 <strcat+0x60>
    80000112:	00001517          	auipc	a0,0x1
    80000116:	6be50513          	addi	a0,a0,1726 # 800017d0 <strcat+0x80>
    8000011a:	220010ef          	jal	8000133a <fs_create_file>
    8000011e:	02700613          	li	a2,39
    80000122:	00001597          	auipc	a1,0x1
    80000126:	6be58593          	addi	a1,a1,1726 # 800017e0 <strcat+0x90>
    8000012a:	00001517          	auipc	a0,0x1
    8000012e:	6de50513          	addi	a0,a0,1758 # 80001808 <strcat+0xb8>
    80000132:	208010ef          	jal	8000133a <fs_create_file>
    80000136:	4611                	li	a2,4
    80000138:	00002597          	auipc	a1,0x2
    8000013c:	0f858593          	addi	a1,a1,248 # 80002230 <strcat+0xae0>
    80000140:	00001517          	auipc	a0,0x1
    80000144:	6d850513          	addi	a0,a0,1752 # 80001818 <strcat+0xc8>
    80000148:	1f2010ef          	jal	8000133a <fs_create_file>
    8000014c:	00001517          	auipc	a0,0x1
    80000150:	6dc50513          	addi	a0,a0,1756 # 80001828 <strcat+0xd8>
    80000154:	04d000ef          	jal	800009a0 <uart_puts>
    80000158:	3e800513          	li	a0,1000
    8000015c:	026010ef          	jal	80001182 <syscall_sleep>
    80000160:	bfe5                	j	80000158 <init_process+0x60>

0000000080000162 <shell_process>:
    80000162:	7105                	addi	sp,sp,-480
    80000164:	00001517          	auipc	a0,0x1
    80000168:	6e450513          	addi	a0,a0,1764 # 80001848 <strcat+0xf8>
    8000016c:	ef86                	sd	ra,472(sp)
    8000016e:	e3ca                	sd	s2,448(sp)
    80000170:	fb52                	sd	s4,432(sp)
    80000172:	f756                	sd	s5,424(sp)
    80000174:	eba2                	sd	s0,464(sp)
    80000176:	e7a6                	sd	s1,456(sp)
    80000178:	ff4e                	sd	s3,440(sp)
    8000017a:	f35a                	sd	s6,416(sp)
    8000017c:	ef5e                	sd	s7,408(sp)
    8000017e:	023000ef          	jal	800009a0 <uart_puts>
    80000182:	00001517          	auipc	a0,0x1
    80000186:	6ce50513          	addi	a0,a0,1742 # 80001850 <strcat+0x100>
    8000018a:	017000ef          	jal	800009a0 <uart_puts>
    8000018e:	00001517          	auipc	a0,0x1
    80000192:	6ea50513          	addi	a0,a0,1770 # 80001878 <strcat+0x128>
    80000196:	00b000ef          	jal	800009a0 <uart_puts>
    8000019a:	00001517          	auipc	a0,0x1
    8000019e:	6b650513          	addi	a0,a0,1718 # 80001850 <strcat+0x100>
    800001a2:	7fe000ef          	jal	800009a0 <uart_puts>
    800001a6:	00001517          	auipc	a0,0x1
    800001aa:	6fa50513          	addi	a0,a0,1786 # 800018a0 <strcat+0x150>
    800001ae:	7f2000ef          	jal	800009a0 <uart_puts>
    800001b2:	00001517          	auipc	a0,0x1
    800001b6:	72650513          	addi	a0,a0,1830 # 800018d8 <strcat+0x188>
    800001ba:	7e6000ef          	jal	800009a0 <uart_puts>
    800001be:	00001517          	auipc	a0,0x1
    800001c2:	68a50513          	addi	a0,a0,1674 # 80001848 <strcat+0xf8>
    800001c6:	7da000ef          	jal	800009a0 <uart_puts>
    800001ca:	4921                	li	s2,8
    800001cc:	4a29                	li	s4,10
    800001ce:	05e00a93          	li	s5,94
    800001d2:	00001b97          	auipc	s7,0x1
    800001d6:	726b8b93          	addi	s7,s7,1830 # 800018f8 <strcat+0x1a8>
    800001da:	00001b17          	auipc	s6,0x1
    800001de:	726b0b13          	addi	s6,s6,1830 # 80001900 <strcat+0x1b0>
    800001e2:	855e                	mv	a0,s7
    800001e4:	7bc000ef          	jal	800009a0 <uart_puts>
    800001e8:	4401                	li	s0,0
    800001ea:	07f00493          	li	s1,127
    800001ee:	49b5                	li	s3,13
    800001f0:	798000ef          	jal	80000988 <uart_getc>
    800001f4:	04950063          	beq	a0,s1,80000234 <shell_process+0xd2>
    800001f8:	03250e63          	beq	a0,s2,80000234 <shell_process+0xd2>
    800001fc:	fe05079b          	addiw	a5,a0,-32
    80000200:	0ff7f793          	zext.b	a5,a5
    80000204:	07e00713          	li	a4,126
    80000208:	05350763          	beq	a0,s3,80000256 <shell_process+0xf4>
    8000020c:	05450563          	beq	a0,s4,80000256 <shell_process+0xf4>
    80000210:	fefae0e3          	bltu	s5,a5,800001f0 <shell_process+0x8e>
    80000214:	02875763          	bge	a4,s0,80000242 <shell_process+0xe0>
    80000218:	770000ef          	jal	80000988 <uart_getc>
    8000021c:	00950463          	beq	a0,s1,80000224 <shell_process+0xc2>
    80000220:	fd251ee3          	bne	a0,s2,800001fc <shell_process+0x9a>
    80000224:	855a                	mv	a0,s6
    80000226:	347d                	addiw	s0,s0,-1
    80000228:	778000ef          	jal	800009a0 <uart_puts>
    8000022c:	75c000ef          	jal	80000988 <uart_getc>
    80000230:	fc9514e3          	bne	a0,s1,800001f8 <shell_process+0x96>
    80000234:	fa805ee3          	blez	s0,800001f0 <shell_process+0x8e>
    80000238:	855a                	mv	a0,s6
    8000023a:	347d                	addiw	s0,s0,-1
    8000023c:	764000ef          	jal	800009a0 <uart_puts>
    80000240:	b7f5                	j	8000022c <shell_process+0xca>
    80000242:	18040793          	addi	a5,s0,384
    80000246:	0818                	addi	a4,sp,16
    80000248:	97ba                	add	a5,a5,a4
    8000024a:	2405                	addiw	s0,s0,1
    8000024c:	e8a78023          	sb	a0,-384(a5)
    80000250:	71e000ef          	jal	8000096e <uart_putc>
    80000254:	bf71                	j	800001f0 <shell_process+0x8e>
    80000256:	18040793          	addi	a5,s0,384
    8000025a:	0818                	addi	a4,sp,16
    8000025c:	97ba                	add	a5,a5,a4
    8000025e:	00001517          	auipc	a0,0x1
    80000262:	5ea50513          	addi	a0,a0,1514 # 80001848 <strcat+0xf8>
    80000266:	e8078023          	sb	zero,-384(a5)
    8000026a:	736000ef          	jal	800009a0 <uart_puts>
    8000026e:	d835                	beqz	s0,800001e2 <shell_process+0x80>
    80000270:	00001597          	auipc	a1,0x1
    80000274:	69858593          	addi	a1,a1,1688 # 80001908 <strcat+0x1b8>
    80000278:	0808                	addi	a0,sp,16
    8000027a:	424010ef          	jal	8000169e <strcmp>
    8000027e:	c15d                	beqz	a0,80000324 <shell_process+0x1c2>
    80000280:	00002597          	auipc	a1,0x2
    80000284:	86858593          	addi	a1,a1,-1944 # 80001ae8 <strcat+0x398>
    80000288:	0808                	addi	a0,sp,16
    8000028a:	414010ef          	jal	8000169e <strcmp>
    8000028e:	12050463          	beqz	a0,800003b6 <shell_process+0x254>
    80000292:	00002597          	auipc	a1,0x2
    80000296:	85e58593          	addi	a1,a1,-1954 # 80001af0 <strcat+0x3a0>
    8000029a:	0808                	addi	a0,sp,16
    8000029c:	402010ef          	jal	8000169e <strcmp>
    800002a0:	12050a63          	beqz	a0,800003d4 <shell_process+0x272>
    800002a4:	4611                	li	a2,4
    800002a6:	00002597          	auipc	a1,0x2
    800002aa:	85258593          	addi	a1,a1,-1966 # 80001af8 <strcat+0x3a8>
    800002ae:	0808                	addi	a0,sp,16
    800002b0:	428010ef          	jal	800016d8 <strncmp>
    800002b4:	12050f63          	beqz	a0,800003f2 <shell_process+0x290>
    800002b8:	461d                	li	a2,7
    800002ba:	00002597          	auipc	a1,0x2
    800002be:	87e58593          	addi	a1,a1,-1922 # 80001b38 <strcat+0x3e8>
    800002c2:	0808                	addi	a0,sp,16
    800002c4:	414010ef          	jal	800016d8 <strncmp>
    800002c8:	1c050663          	beqz	a0,80000494 <shell_process+0x332>
    800002cc:	4615                	li	a2,5
    800002ce:	00002597          	auipc	a1,0x2
    800002d2:	8ea58593          	addi	a1,a1,-1814 # 80001bb8 <strcat+0x468>
    800002d6:	0808                	addi	a0,sp,16
    800002d8:	400010ef          	jal	800016d8 <strncmp>
    800002dc:	12050f63          	beqz	a0,8000041a <shell_process+0x2b8>
    800002e0:	4615                	li	a2,5
    800002e2:	00002597          	auipc	a1,0x2
    800002e6:	90e58593          	addi	a1,a1,-1778 # 80001bf0 <strcat+0x4a0>
    800002ea:	0808                	addi	a0,sp,16
    800002ec:	3ec010ef          	jal	800016d8 <strncmp>
    800002f0:	20050763          	beqz	a0,800004fe <shell_process+0x39c>
    800002f4:	00002597          	auipc	a1,0x2
    800002f8:	92458593          	addi	a1,a1,-1756 # 80001c18 <strcat+0x4c8>
    800002fc:	0808                	addi	a0,sp,16
    800002fe:	3a0010ef          	jal	8000169e <strcmp>
    80000302:	26051e63          	bnez	a0,8000057e <shell_process+0x41c>
    80000306:	00001517          	auipc	a0,0x1
    8000030a:	54250513          	addi	a0,a0,1346 # 80001848 <strcat+0xf8>
    8000030e:	692000ef          	jal	800009a0 <uart_puts>
    80000312:	1d5000ef          	jal	80000ce6 <memory_stats>
    80000316:	00001517          	auipc	a0,0x1
    8000031a:	53250513          	addi	a0,a0,1330 # 80001848 <strcat+0xf8>
    8000031e:	682000ef          	jal	800009a0 <uart_puts>
    80000322:	bd45                	j	800001d2 <shell_process+0x70>
    80000324:	00001517          	auipc	a0,0x1
    80000328:	5ec50513          	addi	a0,a0,1516 # 80001910 <strcat+0x1c0>
    8000032c:	674000ef          	jal	800009a0 <uart_puts>
    80000330:	00001517          	auipc	a0,0x1
    80000334:	5f850513          	addi	a0,a0,1528 # 80001928 <strcat+0x1d8>
    80000338:	668000ef          	jal	800009a0 <uart_puts>
    8000033c:	00001517          	auipc	a0,0x1
    80000340:	61450513          	addi	a0,a0,1556 # 80001950 <strcat+0x200>
    80000344:	65c000ef          	jal	800009a0 <uart_puts>
    80000348:	00001517          	auipc	a0,0x1
    8000034c:	63050513          	addi	a0,a0,1584 # 80001978 <strcat+0x228>
    80000350:	650000ef          	jal	800009a0 <uart_puts>
    80000354:	00001517          	auipc	a0,0x1
    80000358:	64450513          	addi	a0,a0,1604 # 80001998 <strcat+0x248>
    8000035c:	644000ef          	jal	800009a0 <uart_puts>
    80000360:	00001517          	auipc	a0,0x1
    80000364:	66850513          	addi	a0,a0,1640 # 800019c8 <strcat+0x278>
    80000368:	638000ef          	jal	800009a0 <uart_puts>
    8000036c:	00001517          	auipc	a0,0x1
    80000370:	68c50513          	addi	a0,a0,1676 # 800019f8 <strcat+0x2a8>
    80000374:	62c000ef          	jal	800009a0 <uart_puts>
    80000378:	00001517          	auipc	a0,0x1
    8000037c:	6b050513          	addi	a0,a0,1712 # 80001a28 <strcat+0x2d8>
    80000380:	620000ef          	jal	800009a0 <uart_puts>
    80000384:	00001517          	auipc	a0,0x1
    80000388:	6cc50513          	addi	a0,a0,1740 # 80001a50 <strcat+0x300>
    8000038c:	614000ef          	jal	800009a0 <uart_puts>
    80000390:	00001517          	auipc	a0,0x1
    80000394:	6e850513          	addi	a0,a0,1768 # 80001a78 <strcat+0x328>
    80000398:	608000ef          	jal	800009a0 <uart_puts>
    8000039c:	00001517          	auipc	a0,0x1
    800003a0:	70450513          	addi	a0,a0,1796 # 80001aa0 <strcat+0x350>
    800003a4:	5fc000ef          	jal	800009a0 <uart_puts>
    800003a8:	00001517          	auipc	a0,0x1
    800003ac:	72050513          	addi	a0,a0,1824 # 80001ac8 <strcat+0x378>
    800003b0:	5f0000ef          	jal	800009a0 <uart_puts>
    800003b4:	bd39                	j	800001d2 <shell_process+0x70>
    800003b6:	00001517          	auipc	a0,0x1
    800003ba:	49250513          	addi	a0,a0,1170 # 80001848 <strcat+0xf8>
    800003be:	5e2000ef          	jal	800009a0 <uart_puts>
    800003c2:	2eb000ef          	jal	80000eac <process_list>
    800003c6:	00001517          	auipc	a0,0x1
    800003ca:	48250513          	addi	a0,a0,1154 # 80001848 <strcat+0xf8>
    800003ce:	5d2000ef          	jal	800009a0 <uart_puts>
    800003d2:	b501                	j	800001d2 <shell_process+0x70>
    800003d4:	00001517          	auipc	a0,0x1
    800003d8:	47450513          	addi	a0,a0,1140 # 80001848 <strcat+0xf8>
    800003dc:	5c4000ef          	jal	800009a0 <uart_puts>
    800003e0:	0c8010ef          	jal	800014a8 <fs_list_files>
    800003e4:	00001517          	auipc	a0,0x1
    800003e8:	46450513          	addi	a0,a0,1124 # 80001848 <strcat+0xf8>
    800003ec:	5b4000ef          	jal	800009a0 <uart_puts>
    800003f0:	b3cd                	j	800001d2 <shell_process+0x70>
    800003f2:	01414783          	lbu	a5,20(sp)
    800003f6:	02000713          	li	a4,32
    800003fa:	0840                	addi	s0,sp,20
    800003fc:	00e79763          	bne	a5,a4,8000040a <shell_process+0x2a8>
    80000400:	00144783          	lbu	a5,1(s0)
    80000404:	0405                	addi	s0,s0,1
    80000406:	fee78de3          	beq	a5,a4,80000400 <shell_process+0x29e>
    8000040a:	ebd5                	bnez	a5,800004be <shell_process+0x35c>
    8000040c:	00001517          	auipc	a0,0x1
    80000410:	6f450513          	addi	a0,a0,1780 # 80001b00 <strcat+0x3b0>
    80000414:	58c000ef          	jal	800009a0 <uart_puts>
    80000418:	bb6d                	j	800001d2 <shell_process+0x70>
    8000041a:	01514783          	lbu	a5,21(sp)
    8000041e:	02000713          	li	a4,32
    80000422:	01510593          	addi	a1,sp,21
    80000426:	00e79763          	bne	a5,a4,80000434 <shell_process+0x2d2>
    8000042a:	0015c783          	lbu	a5,1(a1)
    8000042e:	0585                	addi	a1,a1,1
    80000430:	fee78de3          	beq	a5,a4,8000042a <shell_process+0x2c8>
    80000434:	24078763          	beqz	a5,80000682 <shell_process+0x520>
    80000438:	0005c783          	lbu	a5,0(a1)
    8000043c:	842e                	mv	s0,a1
    8000043e:	03e00613          	li	a2,62
    80000442:	e399                	bnez	a5,80000448 <shell_process+0x2e6>
    80000444:	a035                	j	80000470 <shell_process+0x30e>
    80000446:	c78d                	beqz	a5,80000470 <shell_process+0x30e>
    80000448:	86be                	mv	a3,a5
    8000044a:	8722                	mv	a4,s0
    8000044c:	00144783          	lbu	a5,1(s0)
    80000450:	0405                	addi	s0,s0,1
    80000452:	fec69ae3          	bne	a3,a2,80000446 <shell_process+0x2e4>
    80000456:	00070023          	sb	zero,0(a4)
    8000045a:	02000693          	li	a3,32
    8000045e:	00d79763          	bne	a5,a3,8000046c <shell_process+0x30a>
    80000462:	00144783          	lbu	a5,1(s0)
    80000466:	0405                	addi	s0,s0,1
    80000468:	fed78de3          	beq	a5,a3,80000462 <shell_process+0x300>
    8000046c:	16079363          	bnez	a5,800005d2 <shell_process+0x470>
    80000470:	00001517          	auipc	a0,0x1
    80000474:	3d850513          	addi	a0,a0,984 # 80001848 <strcat+0xf8>
    80000478:	e42e                	sd	a1,8(sp)
    8000047a:	526000ef          	jal	800009a0 <uart_puts>
    8000047e:	65a2                	ld	a1,8(sp)
    80000480:	852e                	mv	a0,a1
    80000482:	51e000ef          	jal	800009a0 <uart_puts>
    80000486:	00001517          	auipc	a0,0x1
    8000048a:	6aa50513          	addi	a0,a0,1706 # 80001b30 <strcat+0x3e0>
    8000048e:	512000ef          	jal	800009a0 <uart_puts>
    80000492:	b381                	j	800001d2 <shell_process+0x70>
    80000494:	01714783          	lbu	a5,23(sp)
    80000498:	02000713          	li	a4,32
    8000049c:	01710413          	addi	s0,sp,23
    800004a0:	00e79763          	bne	a5,a4,800004ae <shell_process+0x34c>
    800004a4:	00144783          	lbu	a5,1(s0)
    800004a8:	0405                	addi	s0,s0,1
    800004aa:	fee78de3          	beq	a5,a4,800004a4 <shell_process+0x342>
    800004ae:	efad                	bnez	a5,80000528 <shell_process+0x3c6>
    800004b0:	00001517          	auipc	a0,0x1
    800004b4:	69050513          	addi	a0,a0,1680 # 80001b40 <strcat+0x3f0>
    800004b8:	4e8000ef          	jal	800009a0 <uart_puts>
    800004bc:	bb19                	j	800001d2 <shell_process+0x70>
    800004be:	8522                	mv	a0,s0
    800004c0:	77d000ef          	jal	8000143c <fs_open>
    800004c4:	84aa                	mv	s1,a0
    800004c6:	16050463          	beqz	a0,8000062e <shell_process+0x4cc>
    800004ca:	00001517          	auipc	a0,0x1
    800004ce:	37e50513          	addi	a0,a0,894 # 80001848 <strcat+0xf8>
    800004d2:	4ce000ef          	jal	800009a0 <uart_puts>
    800004d6:	60a8                	ld	a0,64(s1)
    800004d8:	4c8000ef          	jal	800009a0 <uart_puts>
    800004dc:	64b8                	ld	a4,72(s1)
    800004de:	e2070ce3          	beqz	a4,80000316 <shell_process+0x1b4>
    800004e2:	60bc                	ld	a5,64(s1)
    800004e4:	46a9                	li	a3,10
    800004e6:	97ba                	add	a5,a5,a4
    800004e8:	fff7c783          	lbu	a5,-1(a5)
    800004ec:	e2d785e3          	beq	a5,a3,80000316 <shell_process+0x1b4>
    800004f0:	00001517          	auipc	a0,0x1
    800004f4:	35850513          	addi	a0,a0,856 # 80001848 <strcat+0xf8>
    800004f8:	4a8000ef          	jal	800009a0 <uart_puts>
    800004fc:	bd29                	j	80000316 <shell_process+0x1b4>
    800004fe:	01514783          	lbu	a5,21(sp)
    80000502:	02000713          	li	a4,32
    80000506:	01510513          	addi	a0,sp,21
    8000050a:	00e79763          	bne	a5,a4,80000518 <shell_process+0x3b6>
    8000050e:	00154783          	lbu	a5,1(a0)
    80000512:	0505                	addi	a0,a0,1
    80000514:	fee78de3          	beq	a5,a4,8000050e <shell_process+0x3ac>
    80000518:	e7c5                	bnez	a5,800005c0 <shell_process+0x45e>
    8000051a:	00001517          	auipc	a0,0x1
    8000051e:	6de50513          	addi	a0,a0,1758 # 80001bf8 <strcat+0x4a8>
    80000522:	47e000ef          	jal	800009a0 <uart_puts>
    80000526:	b175                	j	800001d2 <shell_process+0x70>
    80000528:	00001597          	auipc	a1,0x1
    8000052c:	63858593          	addi	a1,a1,1592 # 80001b60 <strcat+0x410>
    80000530:	0908                	addi	a0,sp,144
    80000532:	1dc010ef          	jal	8000170e <strcpy>
    80000536:	85a2                	mv	a1,s0
    80000538:	0908                	addi	a0,sp,144
    8000053a:	216010ef          	jal	80001750 <strcat>
    8000053e:	00001597          	auipc	a1,0x1
    80000542:	30a58593          	addi	a1,a1,778 # 80001848 <strcat+0xf8>
    80000546:	0908                	addi	a0,sp,144
    80000548:	208010ef          	jal	80001750 <strcat>
    8000054c:	0908                	addi	a0,sp,144
    8000054e:	130010ef          	jal	8000167e <strlen>
    80000552:	862a                	mv	a2,a0
    80000554:	090c                	addi	a1,sp,144
    80000556:	8522                	mv	a0,s0
    80000558:	5e3000ef          	jal	8000133a <fs_create_file>
    8000055c:	e171                	bnez	a0,80000620 <shell_process+0x4be>
    8000055e:	00001517          	auipc	a0,0x1
    80000562:	63250513          	addi	a0,a0,1586 # 80001b90 <strcat+0x440>
    80000566:	43a000ef          	jal	800009a0 <uart_puts>
    8000056a:	8522                	mv	a0,s0
    8000056c:	434000ef          	jal	800009a0 <uart_puts>
    80000570:	00001517          	auipc	a0,0x1
    80000574:	5c050513          	addi	a0,a0,1472 # 80001b30 <strcat+0x3e0>
    80000578:	428000ef          	jal	800009a0 <uart_puts>
    8000057c:	b999                	j	800001d2 <shell_process+0x70>
    8000057e:	00001597          	auipc	a1,0x1
    80000582:	6a258593          	addi	a1,a1,1698 # 80001c20 <strcat+0x4d0>
    80000586:	0808                	addi	a0,sp,16
    80000588:	116010ef          	jal	8000169e <strcmp>
    8000058c:	e555                	bnez	a0,80000638 <shell_process+0x4d6>
    8000058e:	00001517          	auipc	a0,0x1
    80000592:	69a50513          	addi	a0,a0,1690 # 80001c28 <strcat+0x4d8>
    80000596:	40a000ef          	jal	800009a0 <uart_puts>
    8000059a:	00001517          	auipc	a0,0x1
    8000059e:	2b650513          	addi	a0,a0,694 # 80001850 <strcat+0x100>
    800005a2:	3fe000ef          	jal	800009a0 <uart_puts>
    800005a6:	00001517          	auipc	a0,0x1
    800005aa:	2d250513          	addi	a0,a0,722 # 80001878 <strcat+0x128>
    800005ae:	3f2000ef          	jal	800009a0 <uart_puts>
    800005b2:	00001517          	auipc	a0,0x1
    800005b6:	67e50513          	addi	a0,a0,1662 # 80001c30 <strcat+0x4e0>
    800005ba:	3e6000ef          	jal	800009a0 <uart_puts>
    800005be:	b911                	j	800001d2 <shell_process+0x70>
    800005c0:	3e7000ef          	jal	800011a6 <syscall_exec>
    800005c4:	00001517          	auipc	a0,0x1
    800005c8:	28450513          	addi	a0,a0,644 # 80001848 <strcat+0xf8>
    800005cc:	3d4000ef          	jal	800009a0 <uart_puts>
    800005d0:	b109                	j	800001d2 <shell_process+0x70>
    800005d2:	fff70793          	addi	a5,a4,-1
    800005d6:	00f5f763          	bgeu	a1,a5,800005e4 <shell_process+0x482>
    800005da:	0007c703          	lbu	a4,0(a5)
    800005de:	0df77713          	andi	a4,a4,223
    800005e2:	cb0d                	beqz	a4,80000614 <shell_process+0x4b2>
    800005e4:	0908                	addi	a0,sp,144
    800005e6:	128010ef          	jal	8000170e <strcpy>
    800005ea:	00001597          	auipc	a1,0x1
    800005ee:	25e58593          	addi	a1,a1,606 # 80001848 <strcat+0xf8>
    800005f2:	0908                	addi	a0,sp,144
    800005f4:	15c010ef          	jal	80001750 <strcat>
    800005f8:	0908                	addi	a0,sp,144
    800005fa:	084010ef          	jal	8000167e <strlen>
    800005fe:	862a                	mv	a2,a0
    80000600:	090c                	addi	a1,sp,144
    80000602:	8522                	mv	a0,s0
    80000604:	537000ef          	jal	8000133a <fs_create_file>
    80000608:	e535                	bnez	a0,80000674 <shell_process+0x512>
    8000060a:	00001517          	auipc	a0,0x1
    8000060e:	5b650513          	addi	a0,a0,1462 # 80001bc0 <strcat+0x470>
    80000612:	bf91                	j	80000566 <shell_process+0x404>
    80000614:	00078023          	sb	zero,0(a5)
    80000618:	17fd                	addi	a5,a5,-1
    8000061a:	fcb790e3          	bne	a5,a1,800005da <shell_process+0x478>
    8000061e:	b7d9                	j	800005e4 <shell_process+0x482>
    80000620:	00001517          	auipc	a0,0x1
    80000624:	58050513          	addi	a0,a0,1408 # 80001ba0 <strcat+0x450>
    80000628:	378000ef          	jal	800009a0 <uart_puts>
    8000062c:	b65d                	j	800001d2 <shell_process+0x70>
    8000062e:	00001517          	auipc	a0,0x1
    80000632:	4ea50513          	addi	a0,a0,1258 # 80001b18 <strcat+0x3c8>
    80000636:	bf05                	j	80000566 <shell_process+0x404>
    80000638:	00001597          	auipc	a1,0x1
    8000063c:	62058593          	addi	a1,a1,1568 # 80001c58 <strcat+0x508>
    80000640:	0808                	addi	a0,sp,16
    80000642:	05c010ef          	jal	8000169e <strcmp>
    80000646:	cd39                	beqz	a0,800006a4 <shell_process+0x542>
    80000648:	00001517          	auipc	a0,0x1
    8000064c:	65850513          	addi	a0,a0,1624 # 80001ca0 <strcat+0x550>
    80000650:	350000ef          	jal	800009a0 <uart_puts>
    80000654:	0808                	addi	a0,sp,16
    80000656:	34a000ef          	jal	800009a0 <uart_puts>
    8000065a:	00001517          	auipc	a0,0x1
    8000065e:	1ee50513          	addi	a0,a0,494 # 80001848 <strcat+0xf8>
    80000662:	33e000ef          	jal	800009a0 <uart_puts>
    80000666:	00001517          	auipc	a0,0x1
    8000066a:	65250513          	addi	a0,a0,1618 # 80001cb8 <strcat+0x568>
    8000066e:	332000ef          	jal	800009a0 <uart_puts>
    80000672:	b685                	j	800001d2 <shell_process+0x70>
    80000674:	00001517          	auipc	a0,0x1
    80000678:	55c50513          	addi	a0,a0,1372 # 80001bd0 <strcat+0x480>
    8000067c:	324000ef          	jal	800009a0 <uart_puts>
    80000680:	be89                	j	800001d2 <shell_process+0x70>
    80000682:	00001517          	auipc	a0,0x1
    80000686:	1c650513          	addi	a0,a0,454 # 80001848 <strcat+0xf8>
    8000068a:	316000ef          	jal	800009a0 <uart_puts>
    8000068e:	60fe                	ld	ra,472(sp)
    80000690:	645e                	ld	s0,464(sp)
    80000692:	64be                	ld	s1,456(sp)
    80000694:	691e                	ld	s2,448(sp)
    80000696:	79fa                	ld	s3,440(sp)
    80000698:	7a5a                	ld	s4,432(sp)
    8000069a:	7aba                	ld	s5,424(sp)
    8000069c:	7b1a                	ld	s6,416(sp)
    8000069e:	6bfa                	ld	s7,408(sp)
    800006a0:	613d                	addi	sp,sp,480
    800006a2:	8082                	ret
    800006a4:	00001517          	auipc	a0,0x1
    800006a8:	5bc50513          	addi	a0,a0,1468 # 80001c60 <strcat+0x510>
    800006ac:	2f4000ef          	jal	800009a0 <uart_puts>
    800006b0:	00001517          	auipc	a0,0x1
    800006b4:	5c850513          	addi	a0,a0,1480 # 80001c78 <strcat+0x528>
    800006b8:	2e8000ef          	jal	800009a0 <uart_puts>
    800006bc:	4501                	li	a0,0
    800006be:	6409                	lui	s0,0x2
    800006c0:	295000ef          	jal	80001154 <syscall_exit>
    800006c4:	71040413          	addi	s0,s0,1808 # 2710 <_start-0x7fffd8f0>
    800006c8:	8522                	mv	a0,s0
    800006ca:	2b9000ef          	jal	80001182 <syscall_sleep>
    800006ce:	bfed                	j	800006c8 <shell_process+0x566>

00000000800006d0 <kernel_main>:
    800006d0:	1141                	addi	sp,sp,-16
    800006d2:	e406                	sd	ra,8(sp)
    800006d4:	e022                	sd	s0,0(sp)
    800006d6:	296000ef          	jal	8000096c <uart_init>
    800006da:	00001517          	auipc	a0,0x1
    800006de:	60650513          	addi	a0,a0,1542 # 80001ce0 <strcat+0x590>
    800006e2:	2be000ef          	jal	800009a0 <uart_puts>
    800006e6:	00001517          	auipc	a0,0x1
    800006ea:	61a50513          	addi	a0,a0,1562 # 80001d00 <strcat+0x5b0>
    800006ee:	2b2000ef          	jal	800009a0 <uart_puts>
    800006f2:	00001517          	auipc	a0,0x1
    800006f6:	62650513          	addi	a0,a0,1574 # 80001d18 <strcat+0x5c8>
    800006fa:	2a6000ef          	jal	800009a0 <uart_puts>
    800006fe:	04005597          	auipc	a1,0x4005
    80000702:	90258593          	addi	a1,a1,-1790 # 84005000 <_heap_end>
    80000706:	00005517          	auipc	a0,0x5
    8000070a:	8fa50513          	addi	a0,a0,-1798 # 80005000 <_heap_start>
    8000070e:	3f4000ef          	jal	80000b02 <memory_init>
    80000712:	00001517          	auipc	a0,0x1
    80000716:	62e50513          	addi	a0,a0,1582 # 80001d40 <strcat+0x5f0>
    8000071a:	286000ef          	jal	800009a0 <uart_puts>
    8000071e:	650000ef          	jal	80000d6e <process_init>
    80000722:	00001517          	auipc	a0,0x1
    80000726:	64650513          	addi	a0,a0,1606 # 80001d68 <strcat+0x618>
    8000072a:	276000ef          	jal	800009a0 <uart_puts>
    8000072e:	3df000ef          	jal	8000130c <fs_init>
    80000732:	00001517          	auipc	a0,0x1
    80000736:	65650513          	addi	a0,a0,1622 # 80001d88 <strcat+0x638>
    8000073a:	266000ef          	jal	800009a0 <uart_puts>
    8000073e:	4605                	li	a2,1
    80000740:	00000597          	auipc	a1,0x0
    80000744:	9b858593          	addi	a1,a1,-1608 # 800000f8 <init_process>
    80000748:	00001517          	auipc	a0,0x1
    8000074c:	66050513          	addi	a0,a0,1632 # 80001da8 <strcat+0x658>
    80000750:	640000ef          	jal	80000d90 <create_process>
    80000754:	842a                	mv	s0,a0
    80000756:	00001517          	auipc	a0,0x1
    8000075a:	65a50513          	addi	a0,a0,1626 # 80001db0 <strcat+0x660>
    8000075e:	242000ef          	jal	800009a0 <uart_puts>
    80000762:	8522                	mv	a0,s0
    80000764:	280000ef          	jal	800009e4 <uart_put_hex>
    80000768:	00001517          	auipc	a0,0x1
    8000076c:	66850513          	addi	a0,a0,1640 # 80001dd0 <strcat+0x680>
    80000770:	230000ef          	jal	800009a0 <uart_puts>
    80000774:	4605                	li	a2,1
    80000776:	00000597          	auipc	a1,0x0
    8000077a:	9ec58593          	addi	a1,a1,-1556 # 80000162 <shell_process>
    8000077e:	00001517          	auipc	a0,0x1
    80000782:	65a50513          	addi	a0,a0,1626 # 80001dd8 <strcat+0x688>
    80000786:	60a000ef          	jal	80000d90 <create_process>
    8000078a:	842a                	mv	s0,a0
    8000078c:	00001517          	auipc	a0,0x1
    80000790:	65450513          	addi	a0,a0,1620 # 80001de0 <strcat+0x690>
    80000794:	20c000ef          	jal	800009a0 <uart_puts>
    80000798:	8522                	mv	a0,s0
    8000079a:	24a000ef          	jal	800009e4 <uart_put_hex>
    8000079e:	00001517          	auipc	a0,0x1
    800007a2:	63250513          	addi	a0,a0,1586 # 80001dd0 <strcat+0x680>
    800007a6:	1fa000ef          	jal	800009a0 <uart_puts>
    800007aa:	4601                	li	a2,0
    800007ac:	00000597          	auipc	a1,0x0
    800007b0:	94658593          	addi	a1,a1,-1722 # 800000f2 <idle_process>
    800007b4:	00001517          	auipc	a0,0x1
    800007b8:	64c50513          	addi	a0,a0,1612 # 80001e00 <strcat+0x6b0>
    800007bc:	5d4000ef          	jal	80000d90 <create_process>
    800007c0:	842a                	mv	s0,a0
    800007c2:	00001517          	auipc	a0,0x1
    800007c6:	64650513          	addi	a0,a0,1606 # 80001e08 <strcat+0x6b8>
    800007ca:	1d6000ef          	jal	800009a0 <uart_puts>
    800007ce:	8522                	mv	a0,s0
    800007d0:	214000ef          	jal	800009e4 <uart_put_hex>
    800007d4:	00001517          	auipc	a0,0x1
    800007d8:	5fc50513          	addi	a0,a0,1532 # 80001dd0 <strcat+0x680>
    800007dc:	1c4000ef          	jal	800009a0 <uart_puts>
    800007e0:	00001517          	auipc	a0,0x1
    800007e4:	64850513          	addi	a0,a0,1608 # 80001e28 <strcat+0x6d8>
    800007e8:	1b8000ef          	jal	800009a0 <uart_puts>
    800007ec:	00001517          	auipc	a0,0x1
    800007f0:	65450513          	addi	a0,a0,1620 # 80001e40 <strcat+0x6f0>
    800007f4:	1ac000ef          	jal	800009a0 <uart_puts>
    800007f8:	0200c737          	lui	a4,0x200c
    800007fc:	ff873783          	ld	a5,-8(a4) # 200bff8 <_start-0x7dff4008>
    80000800:	009896b7          	lui	a3,0x989
    80000804:	68068693          	addi	a3,a3,1664 # 989680 <_start-0x7f676980>
    80000808:	97b6                	add	a5,a5,a3
    8000080a:	02004737          	lui	a4,0x2004
    8000080e:	e31c                	sd	a5,0(a4)
    80000810:	300027f3          	csrr	a5,mstatus
    80000814:	0087e793          	ori	a5,a5,8
    80000818:	30079073          	csrw	mstatus,a5
    8000081c:	0e5000ef          	jal	80001100 <scheduler_start>
    80000820:	00001517          	auipc	a0,0x1
    80000824:	63850513          	addi	a0,a0,1592 # 80001e58 <strcat+0x708>
    80000828:	178000ef          	jal	800009a0 <uart_puts>
    8000082c:	10500073          	wfi
    80000830:	10500073          	wfi
    80000834:	bfe5                	j	8000082c <kernel_main+0x15c>

0000000080000836 <trap_handler>:
    80000836:	1101                	addi	sp,sp,-32
    80000838:	ec06                	sd	ra,24(sp)
    8000083a:	e822                	sd	s0,16(sp)
    8000083c:	e426                	sd	s1,8(sp)
    8000083e:	34202473          	csrr	s0,mcause
    80000842:	341024f3          	csrr	s1,mepc
    80000846:	06044463          	bltz	s0,800008ae <trap_handler+0x78>
    8000084a:	47a5                	li	a5,9
    8000084c:	0487e463          	bltu	a5,s0,80000894 <trap_handler+0x5e>
    80000850:	479d                	li	a5,7
    80000852:	0487e463          	bltu	a5,s0,8000089a <trap_handler+0x64>
    80000856:	00001517          	auipc	a0,0x1
    8000085a:	65250513          	addi	a0,a0,1618 # 80001ea8 <strcat+0x758>
    8000085e:	142000ef          	jal	800009a0 <uart_puts>
    80000862:	8522                	mv	a0,s0
    80000864:	180000ef          	jal	800009e4 <uart_put_hex>
    80000868:	00001517          	auipc	a0,0x1
    8000086c:	65050513          	addi	a0,a0,1616 # 80001eb8 <strcat+0x768>
    80000870:	130000ef          	jal	800009a0 <uart_puts>
    80000874:	8526                	mv	a0,s1
    80000876:	16e000ef          	jal	800009e4 <uart_put_hex>
    8000087a:	00001517          	auipc	a0,0x1
    8000087e:	fce50513          	addi	a0,a0,-50 # 80001848 <strcat+0xf8>
    80000882:	11e000ef          	jal	800009a0 <uart_puts>
    80000886:	6442                	ld	s0,16(sp)
    80000888:	60e2                	ld	ra,24(sp)
    8000088a:	64a2                	ld	s1,8(sp)
    8000088c:	557d                	li	a0,-1
    8000088e:	6105                	addi	sp,sp,32
    80000890:	7a80006f          	j	80001038 <process_exit>
    80000894:	47ad                	li	a5,11
    80000896:	fcf410e3          	bne	s0,a5,80000856 <trap_handler+0x20>
    8000089a:	189000ef          	jal	80001222 <handle_syscall>
    8000089e:	0491                	addi	s1,s1,4
    800008a0:	34149073          	csrw	mepc,s1
    800008a4:	60e2                	ld	ra,24(sp)
    800008a6:	6442                	ld	s0,16(sp)
    800008a8:	64a2                	ld	s1,8(sp)
    800008aa:	6105                	addi	sp,sp,32
    800008ac:	8082                	ret
    800008ae:	0406                	slli	s0,s0,0x1
    800008b0:	8005                	srli	s0,s0,0x1
    800008b2:	479d                	li	a5,7
    800008b4:	02f40b63          	beq	s0,a5,800008ea <trap_handler+0xb4>
    800008b8:	47ad                	li	a5,11
    800008ba:	00001517          	auipc	a0,0x1
    800008be:	5be50513          	addi	a0,a0,1470 # 80001e78 <strcat+0x728>
    800008c2:	00f40f63          	beq	s0,a5,800008e0 <trap_handler+0xaa>
    800008c6:	00001517          	auipc	a0,0x1
    800008ca:	5ca50513          	addi	a0,a0,1482 # 80001e90 <strcat+0x740>
    800008ce:	0d2000ef          	jal	800009a0 <uart_puts>
    800008d2:	8522                	mv	a0,s0
    800008d4:	110000ef          	jal	800009e4 <uart_put_hex>
    800008d8:	00001517          	auipc	a0,0x1
    800008dc:	f7050513          	addi	a0,a0,-144 # 80001848 <strcat+0xf8>
    800008e0:	6442                	ld	s0,16(sp)
    800008e2:	60e2                	ld	ra,24(sp)
    800008e4:	64a2                	ld	s1,8(sp)
    800008e6:	6105                	addi	sp,sp,32
    800008e8:	a865                	j	800009a0 <uart_puts>
    800008ea:	0200c737          	lui	a4,0x200c
    800008ee:	ff873783          	ld	a5,-8(a4) # 200bff8 <_start-0x7dff4008>
    800008f2:	009896b7          	lui	a3,0x989
    800008f6:	6442                	ld	s0,16(sp)
    800008f8:	68068693          	addi	a3,a3,1664 # 989680 <_start-0x7f676980>
    800008fc:	60e2                	ld	ra,24(sp)
    800008fe:	64a2                	ld	s1,8(sp)
    80000900:	97b6                	add	a5,a5,a3
    80000902:	02004737          	lui	a4,0x2004
    80000906:	e31c                	sd	a5,0(a4)
    80000908:	6105                	addi	sp,sp,32
    8000090a:	02f0006f          	j	80001138 <schedule>

000000008000090e <handle_timer_interrupt>:
    8000090e:	0200c737          	lui	a4,0x200c
    80000912:	ff873783          	ld	a5,-8(a4) # 200bff8 <_start-0x7dff4008>
    80000916:	009896b7          	lui	a3,0x989
    8000091a:	68068693          	addi	a3,a3,1664 # 989680 <_start-0x7f676980>
    8000091e:	97b6                	add	a5,a5,a3
    80000920:	02004737          	lui	a4,0x2004
    80000924:	e31c                	sd	a5,0(a4)
    80000926:	0130006f          	j	80001138 <schedule>

000000008000092a <handle_external_interrupt>:
    8000092a:	00001517          	auipc	a0,0x1
    8000092e:	54e50513          	addi	a0,a0,1358 # 80001e78 <strcat+0x728>
    80000932:	a0bd                	j	800009a0 <uart_puts>

0000000080000934 <enable_interrupts>:
    80000934:	0200c737          	lui	a4,0x200c
    80000938:	ff873783          	ld	a5,-8(a4) # 200bff8 <_start-0x7dff4008>
    8000093c:	009896b7          	lui	a3,0x989
    80000940:	68068693          	addi	a3,a3,1664 # 989680 <_start-0x7f676980>
    80000944:	97b6                	add	a5,a5,a3
    80000946:	02004737          	lui	a4,0x2004
    8000094a:	e31c                	sd	a5,0(a4)
    8000094c:	300027f3          	csrr	a5,mstatus
    80000950:	0087e793          	ori	a5,a5,8
    80000954:	30079073          	csrw	mstatus,a5
    80000958:	8082                	ret

000000008000095a <set_timer>:
    8000095a:	0200c737          	lui	a4,0x200c
    8000095e:	ff873783          	ld	a5,-8(a4) # 200bff8 <_start-0x7dff4008>
    80000962:	02004737          	lui	a4,0x2004
    80000966:	97aa                	add	a5,a5,a0
    80000968:	e31c                	sd	a5,0(a4)
    8000096a:	8082                	ret

000000008000096c <uart_init>:
    8000096c:	8082                	ret

000000008000096e <uart_putc>:
    8000096e:	10000737          	lui	a4,0x10000
    80000972:	0715                	addi	a4,a4,5 # 10000005 <_start-0x6ffffffb>
    80000974:	00074783          	lbu	a5,0(a4)
    80000978:	0207f793          	andi	a5,a5,32
    8000097c:	dfe5                	beqz	a5,80000974 <uart_putc+0x6>
    8000097e:	100007b7          	lui	a5,0x10000
    80000982:	00a78023          	sb	a0,0(a5) # 10000000 <_start-0x70000000>
    80000986:	8082                	ret

0000000080000988 <uart_getc>:
    80000988:	10000737          	lui	a4,0x10000
    8000098c:	0715                	addi	a4,a4,5 # 10000005 <_start-0x6ffffffb>
    8000098e:	00074783          	lbu	a5,0(a4)
    80000992:	8b85                	andi	a5,a5,1
    80000994:	dfed                	beqz	a5,8000098e <uart_getc+0x6>
    80000996:	100007b7          	lui	a5,0x10000
    8000099a:	0007c503          	lbu	a0,0(a5) # 10000000 <_start-0x70000000>
    8000099e:	8082                	ret

00000000800009a0 <uart_puts>:
    800009a0:	00054783          	lbu	a5,0(a0)
    800009a4:	c79d                	beqz	a5,800009d2 <uart_puts+0x32>
    800009a6:	10000737          	lui	a4,0x10000
    800009aa:	45a9                	li	a1,10
    800009ac:	10000637          	lui	a2,0x10000
    800009b0:	0715                	addi	a4,a4,5 # 10000005 <_start-0x6ffffffb>
    800009b2:	4835                	li	a6,13
    800009b4:	02b78063          	beq	a5,a1,800009d4 <uart_puts+0x34>
    800009b8:	00054683          	lbu	a3,0(a0)
    800009bc:	0505                	addi	a0,a0,1
    800009be:	00074783          	lbu	a5,0(a4)
    800009c2:	0207f793          	andi	a5,a5,32
    800009c6:	dfe5                	beqz	a5,800009be <uart_puts+0x1e>
    800009c8:	00d60023          	sb	a3,0(a2) # 10000000 <_start-0x70000000>
    800009cc:	00054783          	lbu	a5,0(a0)
    800009d0:	f3f5                	bnez	a5,800009b4 <uart_puts+0x14>
    800009d2:	8082                	ret
    800009d4:	00074783          	lbu	a5,0(a4)
    800009d8:	0207f793          	andi	a5,a5,32
    800009dc:	dfe5                	beqz	a5,800009d4 <uart_puts+0x34>
    800009de:	01060023          	sb	a6,0(a2)
    800009e2:	bfd9                	j	800009b8 <uart_puts+0x18>

00000000800009e4 <uart_put_hex>:
    800009e4:	00001797          	auipc	a5,0x1
    800009e8:	4e478793          	addi	a5,a5,1252 # 80001ec8 <strcat+0x778>
    800009ec:	6390                	ld	a2,0(a5)
    800009ee:	6794                	ld	a3,8(a5)
    800009f0:	0107c783          	lbu	a5,16(a5)
    800009f4:	1101                	addi	sp,sp,-32
    800009f6:	10000737          	lui	a4,0x10000
    800009fa:	e432                	sd	a2,8(sp)
    800009fc:	e836                	sd	a3,16(sp)
    800009fe:	00f10c23          	sb	a5,24(sp)
    80000a02:	0715                	addi	a4,a4,5 # 10000005 <_start-0x6ffffffb>
    80000a04:	00074783          	lbu	a5,0(a4)
    80000a08:	0207f793          	andi	a5,a5,32
    80000a0c:	dfe5                	beqz	a5,80000a04 <uart_put_hex+0x20>
    80000a0e:	10000737          	lui	a4,0x10000
    80000a12:	100007b7          	lui	a5,0x10000
    80000a16:	03000693          	li	a3,48
    80000a1a:	00d78023          	sb	a3,0(a5) # 10000000 <_start-0x70000000>
    80000a1e:	0715                	addi	a4,a4,5 # 10000005 <_start-0x6ffffffb>
    80000a20:	00074783          	lbu	a5,0(a4)
    80000a24:	0207f793          	andi	a5,a5,32
    80000a28:	dfe5                	beqz	a5,80000a20 <uart_put_hex+0x3c>
    80000a2a:	07800713          	li	a4,120
    80000a2e:	100007b7          	lui	a5,0x10000
    80000a32:	00e78023          	sb	a4,0(a5) # 10000000 <_start-0x70000000>
    80000a36:	03c00713          	li	a4,60
    80000a3a:	a011                	j	80000a3e <uart_put_hex+0x5a>
    80000a3c:	3771                	addiw	a4,a4,-4
    80000a3e:	00e557b3          	srl	a5,a0,a4
    80000a42:	8bbd                	andi	a5,a5,15
    80000a44:	e391                	bnez	a5,80000a48 <uart_put_hex+0x64>
    80000a46:	fb7d                	bnez	a4,80000a3c <uart_put_hex+0x58>
    80000a48:	100006b7          	lui	a3,0x10000
    80000a4c:	10000837          	lui	a6,0x10000
    80000a50:	0695                	addi	a3,a3,5 # 10000005 <_start-0x6ffffffb>
    80000a52:	55f1                	li	a1,-4
    80000a54:	02078793          	addi	a5,a5,32
    80000a58:	978a                	add	a5,a5,sp
    80000a5a:	fe87c603          	lbu	a2,-24(a5)
    80000a5e:	0006c783          	lbu	a5,0(a3)
    80000a62:	0207f793          	andi	a5,a5,32
    80000a66:	dfe5                	beqz	a5,80000a5e <uart_put_hex+0x7a>
    80000a68:	00c80023          	sb	a2,0(a6) # 10000000 <_start-0x70000000>
    80000a6c:	3771                	addiw	a4,a4,-4
    80000a6e:	00b70663          	beq	a4,a1,80000a7a <uart_put_hex+0x96>
    80000a72:	00e557b3          	srl	a5,a0,a4
    80000a76:	8bbd                	andi	a5,a5,15
    80000a78:	bff1                	j	80000a54 <uart_put_hex+0x70>
    80000a7a:	6105                	addi	sp,sp,32
    80000a7c:	8082                	ret

0000000080000a7e <uart_put_dec>:
    80000a7e:	c13d                	beqz	a0,80000ae4 <uart_put_dec+0x66>
    80000a80:	1101                	addi	sp,sp,-32
    80000a82:	0034                	addi	a3,sp,8
    80000a84:	87b6                	mv	a5,a3
    80000a86:	4629                	li	a2,10
    80000a88:	48a5                	li	a7,9
    80000a8a:	02c57733          	remu	a4,a0,a2
    80000a8e:	85be                	mv	a1,a5
    80000a90:	0785                	addi	a5,a5,1
    80000a92:	882a                	mv	a6,a0
    80000a94:	0307071b          	addiw	a4,a4,48
    80000a98:	fee78fa3          	sb	a4,-1(a5)
    80000a9c:	02c55533          	divu	a0,a0,a2
    80000aa0:	ff08e5e3          	bltu	a7,a6,80000a8a <uart_put_dec+0xc>
    80000aa4:	40d587bb          	subw	a5,a1,a3
    80000aa8:	0017861b          	addiw	a2,a5,1
    80000aac:	fff6079b          	addiw	a5,a2,-1
    80000ab0:	fff68593          	addi	a1,a3,-1
    80000ab4:	1782                	slli	a5,a5,0x20
    80000ab6:	95b2                	add	a1,a1,a2
    80000ab8:	9381                	srli	a5,a5,0x20
    80000aba:	10000737          	lui	a4,0x10000
    80000abe:	96b2                	add	a3,a3,a2
    80000ac0:	8d9d                	sub	a1,a1,a5
    80000ac2:	10000537          	lui	a0,0x10000
    80000ac6:	0715                	addi	a4,a4,5 # 10000005 <_start-0x6ffffffb>
    80000ac8:	fff6c603          	lbu	a2,-1(a3)
    80000acc:	00074783          	lbu	a5,0(a4)
    80000ad0:	0207f793          	andi	a5,a5,32
    80000ad4:	dfe5                	beqz	a5,80000acc <uart_put_dec+0x4e>
    80000ad6:	00c50023          	sb	a2,0(a0) # 10000000 <_start-0x70000000>
    80000ada:	16fd                	addi	a3,a3,-1
    80000adc:	feb696e3          	bne	a3,a1,80000ac8 <uart_put_dec+0x4a>
    80000ae0:	6105                	addi	sp,sp,32
    80000ae2:	8082                	ret
    80000ae4:	10000737          	lui	a4,0x10000
    80000ae8:	0715                	addi	a4,a4,5 # 10000005 <_start-0x6ffffffb>
    80000aea:	00074783          	lbu	a5,0(a4)
    80000aee:	0207f793          	andi	a5,a5,32
    80000af2:	dfe5                	beqz	a5,80000aea <uart_put_dec+0x6c>
    80000af4:	100007b7          	lui	a5,0x10000
    80000af8:	03000713          	li	a4,48
    80000afc:	00e78023          	sb	a4,0(a5) # 10000000 <_start-0x70000000>
    80000b00:	8082                	ret

0000000080000b02 <memory_init>:
    80000b02:	1101                	addi	sp,sp,-32
    80000b04:	e822                	sd	s0,16(sp)
    80000b06:	00750413          	addi	s0,a0,7
    80000b0a:	9861                	andi	s0,s0,-8
    80000b0c:	e04a                	sd	s2,0(sp)
    80000b0e:	40858933          	sub	s2,a1,s0
    80000b12:	ec06                	sd	ra,24(sp)
    80000b14:	e426                	sd	s1,8(sp)
    80000b16:	fe890693          	addi	a3,s2,-24
    80000b1a:	4605                	li	a2,1
    80000b1c:	87aa                	mv	a5,a0
    80000b1e:	40a58733          	sub	a4,a1,a0
    80000b22:	e414                	sd	a3,8(s0)
    80000b24:	c010                	sw	a2,0(s0)
    80000b26:	00043823          	sd	zero,16(s0)
    80000b2a:	00001517          	auipc	a0,0x1
    80000b2e:	3b650513          	addi	a0,a0,950 # 80001ee0 <strcat+0x790>
    80000b32:	00003697          	auipc	a3,0x3
    80000b36:	66f6b323          	sd	a5,1638(a3) # 80004198 <heap_start>
    80000b3a:	84ae                	mv	s1,a1
    80000b3c:	00003797          	auipc	a5,0x3
    80000b40:	64b7ba23          	sd	a1,1620(a5) # 80004190 <heap_end>
    80000b44:	00003797          	auipc	a5,0x3
    80000b48:	62e7ba23          	sd	a4,1588(a5) # 80004178 <total_free>
    80000b4c:	00003797          	auipc	a5,0x3
    80000b50:	6287be23          	sd	s0,1596(a5) # 80004188 <free_list>
    80000b54:	00003797          	auipc	a5,0x3
    80000b58:	6207b623          	sd	zero,1580(a5) # 80004180 <total_allocated>
    80000b5c:	e45ff0ef          	jal	800009a0 <uart_puts>
    80000b60:	8522                	mv	a0,s0
    80000b62:	e83ff0ef          	jal	800009e4 <uart_put_hex>
    80000b66:	00001517          	auipc	a0,0x1
    80000b6a:	39250513          	addi	a0,a0,914 # 80001ef8 <strcat+0x7a8>
    80000b6e:	e33ff0ef          	jal	800009a0 <uart_puts>
    80000b72:	8526                	mv	a0,s1
    80000b74:	e71ff0ef          	jal	800009e4 <uart_put_hex>
    80000b78:	00001517          	auipc	a0,0x1
    80000b7c:	39050513          	addi	a0,a0,912 # 80001f08 <strcat+0x7b8>
    80000b80:	e21ff0ef          	jal	800009a0 <uart_puts>
    80000b84:	854a                	mv	a0,s2
    80000b86:	ef9ff0ef          	jal	80000a7e <uart_put_dec>
    80000b8a:	6442                	ld	s0,16(sp)
    80000b8c:	60e2                	ld	ra,24(sp)
    80000b8e:	64a2                	ld	s1,8(sp)
    80000b90:	6902                	ld	s2,0(sp)
    80000b92:	00001517          	auipc	a0,0x1
    80000b96:	38650513          	addi	a0,a0,902 # 80001f18 <strcat+0x7c8>
    80000b9a:	6105                	addi	sp,sp,32
    80000b9c:	b511                	j	800009a0 <uart_puts>

0000000080000b9e <kmalloc>:
    80000b9e:	cd51                	beqz	a0,80000c3a <kmalloc+0x9c>
    80000ba0:	1141                	addi	sp,sp,-16
    80000ba2:	e022                	sd	s0,0(sp)
    80000ba4:	e406                	sd	ra,8(sp)
    80000ba6:	00750413          	addi	s0,a0,7
    80000baa:	00003517          	auipc	a0,0x3
    80000bae:	5de53503          	ld	a0,1502(a0) # 80004188 <free_list>
    80000bb2:	9861                	andi	s0,s0,-8
    80000bb4:	c901                	beqz	a0,80000bc4 <kmalloc+0x26>
    80000bb6:	411c                	lw	a5,0(a0)
    80000bb8:	c781                	beqz	a5,80000bc0 <kmalloc+0x22>
    80000bba:	651c                	ld	a5,8(a0)
    80000bbc:	0287f863          	bgeu	a5,s0,80000bec <kmalloc+0x4e>
    80000bc0:	6908                	ld	a0,16(a0)
    80000bc2:	f975                	bnez	a0,80000bb6 <kmalloc+0x18>
    80000bc4:	00001517          	auipc	a0,0x1
    80000bc8:	35c50513          	addi	a0,a0,860 # 80001f20 <strcat+0x7d0>
    80000bcc:	dd5ff0ef          	jal	800009a0 <uart_puts>
    80000bd0:	8522                	mv	a0,s0
    80000bd2:	eadff0ef          	jal	80000a7e <uart_put_dec>
    80000bd6:	00001517          	auipc	a0,0x1
    80000bda:	34250513          	addi	a0,a0,834 # 80001f18 <strcat+0x7c8>
    80000bde:	dc3ff0ef          	jal	800009a0 <uart_puts>
    80000be2:	60a2                	ld	ra,8(sp)
    80000be4:	6402                	ld	s0,0(sp)
    80000be6:	4501                	li	a0,0
    80000be8:	0141                	addi	sp,sp,16
    80000bea:	8082                	ret
    80000bec:	00052023          	sw	zero,0(a0)
    80000bf0:	05840713          	addi	a4,s0,88
    80000bf4:	00f77f63          	bgeu	a4,a5,80000c12 <kmalloc+0x74>
    80000bf8:	6914                	ld	a3,16(a0)
    80000bfa:	8f81                	sub	a5,a5,s0
    80000bfc:	01840713          	addi	a4,s0,24
    80000c00:	972a                	add	a4,a4,a0
    80000c02:	17a1                	addi	a5,a5,-24
    80000c04:	4605                	li	a2,1
    80000c06:	e71c                	sd	a5,8(a4)
    80000c08:	c310                	sw	a2,0(a4)
    80000c0a:	eb14                	sd	a3,16(a4)
    80000c0c:	e918                	sd	a4,16(a0)
    80000c0e:	e500                	sd	s0,8(a0)
    80000c10:	87a2                	mv	a5,s0
    80000c12:	00003597          	auipc	a1,0x3
    80000c16:	56e58593          	addi	a1,a1,1390 # 80004180 <total_allocated>
    80000c1a:	00003617          	auipc	a2,0x3
    80000c1e:	55e60613          	addi	a2,a2,1374 # 80004178 <total_free>
    80000c22:	6194                	ld	a3,0(a1)
    80000c24:	6218                	ld	a4,0(a2)
    80000c26:	60a2                	ld	ra,8(sp)
    80000c28:	6402                	ld	s0,0(sp)
    80000c2a:	96be                	add	a3,a3,a5
    80000c2c:	40f707b3          	sub	a5,a4,a5
    80000c30:	e194                	sd	a3,0(a1)
    80000c32:	e21c                	sd	a5,0(a2)
    80000c34:	0561                	addi	a0,a0,24
    80000c36:	0141                	addi	sp,sp,16
    80000c38:	8082                	ret
    80000c3a:	4501                	li	a0,0
    80000c3c:	8082                	ret

0000000080000c3e <kfree>:
    80000c3e:	cd39                	beqz	a0,80000c9c <kfree+0x5e>
    80000c40:	00003817          	auipc	a6,0x3
    80000c44:	54080813          	addi	a6,a6,1344 # 80004180 <total_allocated>
    80000c48:	00003597          	auipc	a1,0x3
    80000c4c:	53058593          	addi	a1,a1,1328 # 80004178 <total_free>
    80000c50:	ff053783          	ld	a5,-16(a0)
    80000c54:	00083683          	ld	a3,0(a6)
    80000c58:	6198                	ld	a4,0(a1)
    80000c5a:	ff853603          	ld	a2,-8(a0)
    80000c5e:	8e9d                	sub	a3,a3,a5
    80000c60:	973e                	add	a4,a4,a5
    80000c62:	4885                	li	a7,1
    80000c64:	00d83023          	sd	a3,0(a6)
    80000c68:	ff152423          	sw	a7,-24(a0)
    80000c6c:	e198                	sd	a4,0(a1)
    80000c6e:	fe850693          	addi	a3,a0,-24
    80000c72:	ca19                	beqz	a2,80000c88 <kfree+0x4a>
    80000c74:	4218                	lw	a4,0(a2)
    80000c76:	cb09                	beqz	a4,80000c88 <kfree+0x4a>
    80000c78:	6618                	ld	a4,8(a2)
    80000c7a:	6a10                	ld	a2,16(a2)
    80000c7c:	07e1                	addi	a5,a5,24
    80000c7e:	97ba                	add	a5,a5,a4
    80000c80:	fef53823          	sd	a5,-16(a0)
    80000c84:	fec53c23          	sd	a2,-8(a0)
    80000c88:	00003797          	auipc	a5,0x3
    80000c8c:	5007b783          	ld	a5,1280(a5) # 80004188 <free_list>
    80000c90:	c791                	beqz	a5,80000c9c <kfree+0x5e>
    80000c92:	6b98                	ld	a4,16(a5)
    80000c94:	00d70563          	beq	a4,a3,80000c9e <kfree+0x60>
    80000c98:	87ba                	mv	a5,a4
    80000c9a:	ffe5                	bnez	a5,80000c92 <kfree+0x54>
    80000c9c:	8082                	ret
    80000c9e:	4398                	lw	a4,0(a5)
    80000ca0:	df75                	beqz	a4,80000c9c <kfree+0x5e>
    80000ca2:	ff053683          	ld	a3,-16(a0)
    80000ca6:	6798                	ld	a4,8(a5)
    80000ca8:	ff853603          	ld	a2,-8(a0)
    80000cac:	06e1                	addi	a3,a3,24
    80000cae:	9736                	add	a4,a4,a3
    80000cb0:	e798                	sd	a4,8(a5)
    80000cb2:	eb90                	sd	a2,16(a5)
    80000cb4:	8082                	ret

0000000080000cb6 <memset>:
    80000cb6:	0ff5f593          	zext.b	a1,a1
    80000cba:	00c50733          	add	a4,a0,a2
    80000cbe:	87aa                	mv	a5,a0
    80000cc0:	c611                	beqz	a2,80000ccc <memset+0x16>
    80000cc2:	0785                	addi	a5,a5,1
    80000cc4:	feb78fa3          	sb	a1,-1(a5)
    80000cc8:	fef71de3          	bne	a4,a5,80000cc2 <memset+0xc>
    80000ccc:	8082                	ret

0000000080000cce <memcpy>:
    80000cce:	ca19                	beqz	a2,80000ce4 <memcpy+0x16>
    80000cd0:	962a                	add	a2,a2,a0
    80000cd2:	87aa                	mv	a5,a0
    80000cd4:	0005c703          	lbu	a4,0(a1)
    80000cd8:	0785                	addi	a5,a5,1
    80000cda:	0585                	addi	a1,a1,1
    80000cdc:	fee78fa3          	sb	a4,-1(a5)
    80000ce0:	fef61ae3          	bne	a2,a5,80000cd4 <memcpy+0x6>
    80000ce4:	8082                	ret

0000000080000ce6 <memory_stats>:
    80000ce6:	1141                	addi	sp,sp,-16
    80000ce8:	00001517          	auipc	a0,0x1
    80000cec:	26050513          	addi	a0,a0,608 # 80001f48 <strcat+0x7f8>
    80000cf0:	e406                	sd	ra,8(sp)
    80000cf2:	cafff0ef          	jal	800009a0 <uart_puts>
    80000cf6:	00001517          	auipc	a0,0x1
    80000cfa:	26a50513          	addi	a0,a0,618 # 80001f60 <strcat+0x810>
    80000cfe:	ca3ff0ef          	jal	800009a0 <uart_puts>
    80000d02:	00003797          	auipc	a5,0x3
    80000d06:	4967b783          	ld	a5,1174(a5) # 80004198 <heap_start>
    80000d0a:	00003517          	auipc	a0,0x3
    80000d0e:	48653503          	ld	a0,1158(a0) # 80004190 <heap_end>
    80000d12:	8d1d                	sub	a0,a0,a5
    80000d14:	d6bff0ef          	jal	80000a7e <uart_put_dec>
    80000d18:	00001517          	auipc	a0,0x1
    80000d1c:	20050513          	addi	a0,a0,512 # 80001f18 <strcat+0x7c8>
    80000d20:	c81ff0ef          	jal	800009a0 <uart_puts>
    80000d24:	00001517          	auipc	a0,0x1
    80000d28:	24c50513          	addi	a0,a0,588 # 80001f70 <strcat+0x820>
    80000d2c:	c75ff0ef          	jal	800009a0 <uart_puts>
    80000d30:	00003517          	auipc	a0,0x3
    80000d34:	45053503          	ld	a0,1104(a0) # 80004180 <total_allocated>
    80000d38:	d47ff0ef          	jal	80000a7e <uart_put_dec>
    80000d3c:	00001517          	auipc	a0,0x1
    80000d40:	1dc50513          	addi	a0,a0,476 # 80001f18 <strcat+0x7c8>
    80000d44:	c5dff0ef          	jal	800009a0 <uart_puts>
    80000d48:	00001517          	auipc	a0,0x1
    80000d4c:	23850513          	addi	a0,a0,568 # 80001f80 <strcat+0x830>
    80000d50:	c51ff0ef          	jal	800009a0 <uart_puts>
    80000d54:	00003517          	auipc	a0,0x3
    80000d58:	42453503          	ld	a0,1060(a0) # 80004178 <total_free>
    80000d5c:	d23ff0ef          	jal	80000a7e <uart_put_dec>
    80000d60:	60a2                	ld	ra,8(sp)
    80000d62:	00001517          	auipc	a0,0x1
    80000d66:	1b650513          	addi	a0,a0,438 # 80001f18 <strcat+0x7c8>
    80000d6a:	0141                	addi	sp,sp,16
    80000d6c:	b915                	j	800009a0 <uart_puts>

0000000080000d6e <process_init>:
    80000d6e:	00001797          	auipc	a5,0x1
    80000d72:	50a78793          	addi	a5,a5,1290 # 80002278 <processes>
    80000d76:	00002717          	auipc	a4,0x2
    80000d7a:	00270713          	addi	a4,a4,2 # 80002d78 <files>
    80000d7e:	0007a023          	sw	zero,0(a5)
    80000d82:	0207a223          	sw	zero,36(a5)
    80000d86:	05878793          	addi	a5,a5,88
    80000d8a:	fee79ae3          	bne	a5,a4,80000d7e <process_init+0x10>
    80000d8e:	8082                	ret

0000000080000d90 <create_process>:
    80000d90:	1101                	addi	sp,sp,-32
    80000d92:	e426                	sd	s1,8(sp)
    80000d94:	e04a                	sd	s2,0(sp)
    80000d96:	ec06                	sd	ra,24(sp)
    80000d98:	e822                	sd	s0,16(sp)
    80000d9a:	84ae                	mv	s1,a1
    80000d9c:	8932                	mv	s2,a2
    80000d9e:	00001717          	auipc	a4,0x1
    80000da2:	4fe70713          	addi	a4,a4,1278 # 8000229c <processes+0x24>
    80000da6:	4781                	li	a5,0
    80000da8:	02000813          	li	a6,32
    80000dac:	a021                	j	80000db4 <create_process+0x24>
    80000dae:	2785                	addiw	a5,a5,1
    80000db0:	09078663          	beq	a5,a6,80000e3c <create_process+0xac>
    80000db4:	4314                	lw	a3,0(a4)
    80000db6:	05870713          	addi	a4,a4,88
    80000dba:	faf5                	bnez	a3,80000dae <create_process+0x1e>
    80000dbc:	05800713          	li	a4,88
    80000dc0:	02e787b3          	mul	a5,a5,a4
    80000dc4:	00001817          	auipc	a6,0x1
    80000dc8:	4b080813          	addi	a6,a6,1200 # 80002274 <next_pid>
    80000dcc:	00082703          	lw	a4,0(a6)
    80000dd0:	00001697          	auipc	a3,0x1
    80000dd4:	4a868693          	addi	a3,a3,1192 # 80002278 <processes>
    80000dd8:	85aa                	mv	a1,a0
    80000dda:	0017089b          	addiw	a7,a4,1
    80000dde:	467d                	li	a2,31
    80000de0:	01182023          	sw	a7,0(a6)
    80000de4:	00478513          	addi	a0,a5,4
    80000de8:	00f68433          	add	s0,a3,a5
    80000dec:	9536                	add	a0,a0,a3
    80000dee:	c018                	sw	a4,0(s0)
    80000df0:	131000ef          	jal	80001720 <strncpy>
    80000df4:	4785                	li	a5,1
    80000df6:	6509                	lui	a0,0x2
    80000df8:	020401a3          	sb	zero,35(s0)
    80000dfc:	d05c                	sw	a5,36(s0)
    80000dfe:	03242423          	sw	s2,40(s0)
    80000e02:	e024                	sd	s1,64(s0)
    80000e04:	04043423          	sd	zero,72(s0)
    80000e08:	d97ff0ef          	jal	80000b9e <kmalloc>
    80000e0c:	fc08                	sd	a0,56(s0)
    80000e0e:	cd1d                	beqz	a0,80000e4c <create_process+0xbc>
    80000e10:	6789                	lui	a5,0x2
    80000e12:	17e1                	addi	a5,a5,-8 # 1ff8 <_start-0x7fffe008>
    80000e14:	953e                	add	a0,a0,a5
    80000e16:	f808                	sd	a0,48(s0)
    80000e18:	e104                	sd	s1,0(a0)
    80000e1a:	781c                	ld	a5,48(s0)
    80000e1c:	ff878713          	addi	a4,a5,-8
    80000e20:	f818                	sd	a4,48(s0)
    80000e22:	fe07bc23          	sd	zero,-8(a5)
    80000e26:	781c                	ld	a5,48(s0)
    80000e28:	4008                	lw	a0,0(s0)
    80000e2a:	f1078793          	addi	a5,a5,-240
    80000e2e:	f81c                	sd	a5,48(s0)
    80000e30:	60e2                	ld	ra,24(sp)
    80000e32:	6442                	ld	s0,16(sp)
    80000e34:	64a2                	ld	s1,8(sp)
    80000e36:	6902                	ld	s2,0(sp)
    80000e38:	6105                	addi	sp,sp,32
    80000e3a:	8082                	ret
    80000e3c:	00001517          	auipc	a0,0x1
    80000e40:	17c50513          	addi	a0,a0,380 # 80001fb8 <strcat+0x868>
    80000e44:	b5dff0ef          	jal	800009a0 <uart_puts>
    80000e48:	557d                	li	a0,-1
    80000e4a:	b7dd                	j	80000e30 <create_process+0xa0>
    80000e4c:	00001517          	auipc	a0,0x1
    80000e50:	14450513          	addi	a0,a0,324 # 80001f90 <strcat+0x840>
    80000e54:	b4dff0ef          	jal	800009a0 <uart_puts>
    80000e58:	557d                	li	a0,-1
    80000e5a:	02042223          	sw	zero,36(s0)
    80000e5e:	bfc9                	j	80000e30 <create_process+0xa0>

0000000080000e60 <get_current_process>:
    80000e60:	00003517          	auipc	a0,0x3
    80000e64:	34053503          	ld	a0,832(a0) # 800041a0 <current_process>
    80000e68:	8082                	ret

0000000080000e6a <set_current_process>:
    80000e6a:	00003797          	auipc	a5,0x3
    80000e6e:	32a7bb23          	sd	a0,822(a5) # 800041a0 <current_process>
    80000e72:	8082                	ret

0000000080000e74 <get_process_by_pid>:
    80000e74:	00001597          	auipc	a1,0x1
    80000e78:	40458593          	addi	a1,a1,1028 # 80002278 <processes>
    80000e7c:	87ae                	mv	a5,a1
    80000e7e:	4701                	li	a4,0
    80000e80:	02000613          	li	a2,32
    80000e84:	a031                	j	80000e90 <get_process_by_pid+0x1c>
    80000e86:	2705                	addiw	a4,a4,1
    80000e88:	05878793          	addi	a5,a5,88
    80000e8c:	00c70e63          	beq	a4,a2,80000ea8 <get_process_by_pid+0x34>
    80000e90:	4394                	lw	a3,0(a5)
    80000e92:	fea69ae3          	bne	a3,a0,80000e86 <get_process_by_pid+0x12>
    80000e96:	53d4                	lw	a3,36(a5)
    80000e98:	d6fd                	beqz	a3,80000e86 <get_process_by_pid+0x12>
    80000e9a:	05800793          	li	a5,88
    80000e9e:	02f70733          	mul	a4,a4,a5
    80000ea2:	00e58533          	add	a0,a1,a4
    80000ea6:	8082                	ret
    80000ea8:	4501                	li	a0,0
    80000eaa:	8082                	ret

0000000080000eac <process_list>:
    80000eac:	711d                	addi	sp,sp,-96
    80000eae:	00001517          	auipc	a0,0x1
    80000eb2:	12a50513          	addi	a0,a0,298 # 80001fd8 <strcat+0x888>
    80000eb6:	ec86                	sd	ra,88(sp)
    80000eb8:	e8a2                	sd	s0,80(sp)
    80000eba:	e4a6                	sd	s1,72(sp)
    80000ebc:	e0ca                	sd	s2,64(sp)
    80000ebe:	fc4e                	sd	s3,56(sp)
    80000ec0:	f852                	sd	s4,48(sp)
    80000ec2:	f456                	sd	s5,40(sp)
    80000ec4:	f05a                	sd	s6,32(sp)
    80000ec6:	ec5e                	sd	s7,24(sp)
    80000ec8:	e862                	sd	s8,16(sp)
    80000eca:	e466                	sd	s9,8(sp)
    80000ecc:	ad5ff0ef          	jal	800009a0 <uart_puts>
    80000ed0:	00001517          	auipc	a0,0x1
    80000ed4:	13050513          	addi	a0,a0,304 # 80002000 <strcat+0x8b0>
    80000ed8:	ac9ff0ef          	jal	800009a0 <uart_puts>
    80000edc:	00001417          	auipc	s0,0x1
    80000ee0:	3a040413          	addi	s0,s0,928 # 8000227c <processes+0x4>
    80000ee4:	00002497          	auipc	s1,0x2
    80000ee8:	e9848493          	addi	s1,s1,-360 # 80002d7c <files+0x4>
    80000eec:	00001b97          	auipc	s7,0x1
    80000ef0:	13cb8b93          	addi	s7,s7,316 # 80002028 <strcat+0x8d8>
    80000ef4:	4b15                	li	s6,5
    80000ef6:	00001a97          	auipc	s5,0x1
    80000efa:	19aa8a93          	addi	s5,s5,410 # 80002090 <strcat+0x940>
    80000efe:	00001a17          	auipc	s4,0x1
    80000f02:	19aa0a13          	addi	s4,s4,410 # 80002098 <strcat+0x948>
    80000f06:	00001997          	auipc	s3,0x1
    80000f0a:	94298993          	addi	s3,s3,-1726 # 80001848 <strcat+0xf8>
    80000f0e:	00001c97          	auipc	s9,0x1
    80000f12:	172c8c93          	addi	s9,s9,370 # 80002080 <strcat+0x930>
    80000f16:	00001917          	auipc	s2,0x1
    80000f1a:	32290913          	addi	s2,s2,802 # 80002238 <strcat+0xae8>
    80000f1e:	00001c17          	auipc	s8,0x1
    80000f22:	152c0c13          	addi	s8,s8,338 # 80002070 <strcat+0x920>
    80000f26:	a029                	j	80000f30 <process_list+0x84>
    80000f28:	05840413          	addi	s0,s0,88
    80000f2c:	04940b63          	beq	s0,s1,80000f82 <process_list+0xd6>
    80000f30:	501c                	lw	a5,32(s0)
    80000f32:	dbfd                	beqz	a5,80000f28 <process_list+0x7c>
    80000f34:	ffc42503          	lw	a0,-4(s0)
    80000f38:	b47ff0ef          	jal	80000a7e <uart_put_dec>
    80000f3c:	855e                	mv	a0,s7
    80000f3e:	a63ff0ef          	jal	800009a0 <uart_puts>
    80000f42:	501c                	lw	a5,32(s0)
    80000f44:	08fb6863          	bltu	s6,a5,80000fd4 <process_list+0x128>
    80000f48:	02046783          	lwu	a5,32(s0)
    80000f4c:	078a                	slli	a5,a5,0x2
    80000f4e:	97ca                	add	a5,a5,s2
    80000f50:	439c                	lw	a5,0(a5)
    80000f52:	97ca                	add	a5,a5,s2
    80000f54:	8782                	jr	a5
    80000f56:	8562                	mv	a0,s8
    80000f58:	a49ff0ef          	jal	800009a0 <uart_puts>
    80000f5c:	8556                	mv	a0,s5
    80000f5e:	a43ff0ef          	jal	800009a0 <uart_puts>
    80000f62:	5048                	lw	a0,36(s0)
    80000f64:	b1bff0ef          	jal	80000a7e <uart_put_dec>
    80000f68:	8552                	mv	a0,s4
    80000f6a:	a37ff0ef          	jal	800009a0 <uart_puts>
    80000f6e:	8522                	mv	a0,s0
    80000f70:	a31ff0ef          	jal	800009a0 <uart_puts>
    80000f74:	854e                	mv	a0,s3
    80000f76:	05840413          	addi	s0,s0,88
    80000f7a:	a27ff0ef          	jal	800009a0 <uart_puts>
    80000f7e:	fa9419e3          	bne	s0,s1,80000f30 <process_list+0x84>
    80000f82:	60e6                	ld	ra,88(sp)
    80000f84:	6446                	ld	s0,80(sp)
    80000f86:	64a6                	ld	s1,72(sp)
    80000f88:	6906                	ld	s2,64(sp)
    80000f8a:	79e2                	ld	s3,56(sp)
    80000f8c:	7a42                	ld	s4,48(sp)
    80000f8e:	7aa2                	ld	s5,40(sp)
    80000f90:	7b02                	ld	s6,32(sp)
    80000f92:	6be2                	ld	s7,24(sp)
    80000f94:	6c42                	ld	s8,16(sp)
    80000f96:	6ca2                	ld	s9,8(sp)
    80000f98:	6125                	addi	sp,sp,96
    80000f9a:	8082                	ret
    80000f9c:	00001517          	auipc	a0,0x1
    80000fa0:	0c450513          	addi	a0,a0,196 # 80002060 <strcat+0x910>
    80000fa4:	9fdff0ef          	jal	800009a0 <uart_puts>
    80000fa8:	bf55                	j	80000f5c <process_list+0xb0>
    80000faa:	00001517          	auipc	a0,0x1
    80000fae:	0a650513          	addi	a0,a0,166 # 80002050 <strcat+0x900>
    80000fb2:	9efff0ef          	jal	800009a0 <uart_puts>
    80000fb6:	b75d                	j	80000f5c <process_list+0xb0>
    80000fb8:	00001517          	auipc	a0,0x1
    80000fbc:	08850513          	addi	a0,a0,136 # 80002040 <strcat+0x8f0>
    80000fc0:	9e1ff0ef          	jal	800009a0 <uart_puts>
    80000fc4:	bf61                	j	80000f5c <process_list+0xb0>
    80000fc6:	00001517          	auipc	a0,0x1
    80000fca:	06a50513          	addi	a0,a0,106 # 80002030 <strcat+0x8e0>
    80000fce:	9d3ff0ef          	jal	800009a0 <uart_puts>
    80000fd2:	b769                	j	80000f5c <process_list+0xb0>
    80000fd4:	8566                	mv	a0,s9
    80000fd6:	9cbff0ef          	jal	800009a0 <uart_puts>
    80000fda:	b749                	j	80000f5c <process_list+0xb0>

0000000080000fdc <process_sleep>:
    80000fdc:	00003797          	auipc	a5,0x3
    80000fe0:	1c47b783          	ld	a5,452(a5) # 800041a0 <current_process>
    80000fe4:	cb89                	beqz	a5,80000ff6 <process_sleep+0x1a>
    80000fe6:	0200c6b7          	lui	a3,0x200c
    80000fea:	ff86b703          	ld	a4,-8(a3) # 200bff8 <_start-0x7dff4008>
    80000fee:	468d                	li	a3,3
    80000ff0:	d3d4                	sw	a3,36(a5)
    80000ff2:	972a                	add	a4,a4,a0
    80000ff4:	e7b8                	sd	a4,72(a5)
    80000ff6:	8082                	ret

0000000080000ff8 <process_wake_sleeping>:
    80000ff8:	0200c7b7          	lui	a5,0x200c
    80000ffc:	ff87b583          	ld	a1,-8(a5) # 200bff8 <_start-0x7dff4008>
    80001000:	00002617          	auipc	a2,0x2
    80001004:	d9c60613          	addi	a2,a2,-612 # 80002d9c <files+0x24>
    80001008:	00001797          	auipc	a5,0x1
    8000100c:	29478793          	addi	a5,a5,660 # 8000229c <processes+0x24>
    80001010:	468d                	li	a3,3
    80001012:	4505                	li	a0,1
    80001014:	a029                	j	8000101e <process_wake_sleeping+0x26>
    80001016:	05878793          	addi	a5,a5,88
    8000101a:	00f60e63          	beq	a2,a5,80001036 <process_wake_sleeping+0x3e>
    8000101e:	4398                	lw	a4,0(a5)
    80001020:	fed71be3          	bne	a4,a3,80001016 <process_wake_sleeping+0x1e>
    80001024:	0247b703          	ld	a4,36(a5)
    80001028:	fee5e7e3          	bltu	a1,a4,80001016 <process_wake_sleeping+0x1e>
    8000102c:	c388                	sw	a0,0(a5)
    8000102e:	05878793          	addi	a5,a5,88
    80001032:	fef616e3          	bne	a2,a5,8000101e <process_wake_sleeping+0x26>
    80001036:	8082                	ret

0000000080001038 <process_exit>:
    80001038:	1101                	addi	sp,sp,-32
    8000103a:	e426                	sd	s1,8(sp)
    8000103c:	00003497          	auipc	s1,0x3
    80001040:	16448493          	addi	s1,s1,356 # 800041a0 <current_process>
    80001044:	609c                	ld	a5,0(s1)
    80001046:	ec06                	sd	ra,24(sp)
    80001048:	c3ad                	beqz	a5,800010aa <process_exit+0x72>
    8000104a:	e822                	sd	s0,16(sp)
    8000104c:	842a                	mv	s0,a0
    8000104e:	00001517          	auipc	a0,0x1
    80001052:	05a50513          	addi	a0,a0,90 # 800020a8 <strcat+0x958>
    80001056:	94bff0ef          	jal	800009a0 <uart_puts>
    8000105a:	609c                	ld	a5,0(s1)
    8000105c:	4388                	lw	a0,0(a5)
    8000105e:	a21ff0ef          	jal	80000a7e <uart_put_dec>
    80001062:	00001517          	auipc	a0,0x1
    80001066:	05e50513          	addi	a0,a0,94 # 800020c0 <strcat+0x970>
    8000106a:	937ff0ef          	jal	800009a0 <uart_puts>
    8000106e:	6088                	ld	a0,0(s1)
    80001070:	0511                	addi	a0,a0,4
    80001072:	92fff0ef          	jal	800009a0 <uart_puts>
    80001076:	00001517          	auipc	a0,0x1
    8000107a:	05250513          	addi	a0,a0,82 # 800020c8 <strcat+0x978>
    8000107e:	923ff0ef          	jal	800009a0 <uart_puts>
    80001082:	8522                	mv	a0,s0
    80001084:	9fbff0ef          	jal	80000a7e <uart_put_dec>
    80001088:	00000517          	auipc	a0,0x0
    8000108c:	7c050513          	addi	a0,a0,1984 # 80001848 <strcat+0xf8>
    80001090:	911ff0ef          	jal	800009a0 <uart_puts>
    80001094:	609c                	ld	a5,0(s1)
    80001096:	4715                	li	a4,5
    80001098:	7f88                	ld	a0,56(a5)
    8000109a:	d3d8                	sw	a4,36(a5)
    8000109c:	cba0                	sw	s0,80(a5)
    8000109e:	e911                	bnez	a0,800010b2 <process_exit+0x7a>
    800010a0:	6442                	ld	s0,16(sp)
    800010a2:	60e2                	ld	ra,24(sp)
    800010a4:	64a2                	ld	s1,8(sp)
    800010a6:	6105                	addi	sp,sp,32
    800010a8:	a841                	j	80001138 <schedule>
    800010aa:	60e2                	ld	ra,24(sp)
    800010ac:	64a2                	ld	s1,8(sp)
    800010ae:	6105                	addi	sp,sp,32
    800010b0:	8082                	ret
    800010b2:	b8dff0ef          	jal	80000c3e <kfree>
    800010b6:	609c                	ld	a5,0(s1)
    800010b8:	6442                	ld	s0,16(sp)
    800010ba:	60e2                	ld	ra,24(sp)
    800010bc:	64a2                	ld	s1,8(sp)
    800010be:	0207bc23          	sd	zero,56(a5)
    800010c2:	6105                	addi	sp,sp,32
    800010c4:	a895                	j	80001138 <schedule>

00000000800010c6 <get_next_process>:
    800010c6:	00001797          	auipc	a5,0x1
    800010ca:	1b278793          	addi	a5,a5,434 # 80002278 <processes>
    800010ce:	00002617          	auipc	a2,0x2
    800010d2:	caa60613          	addi	a2,a2,-854 # 80002d78 <files>
    800010d6:	55fd                	li	a1,-1
    800010d8:	4501                	li	a0,0
    800010da:	4685                	li	a3,1
    800010dc:	a029                	j	800010e6 <get_next_process+0x20>
    800010de:	05878793          	addi	a5,a5,88
    800010e2:	00f60e63          	beq	a2,a5,800010fe <get_next_process+0x38>
    800010e6:	53d8                	lw	a4,36(a5)
    800010e8:	fed71be3          	bne	a4,a3,800010de <get_next_process+0x18>
    800010ec:	5798                	lw	a4,40(a5)
    800010ee:	fee5d8e3          	bge	a1,a4,800010de <get_next_process+0x18>
    800010f2:	853e                	mv	a0,a5
    800010f4:	05878793          	addi	a5,a5,88
    800010f8:	85ba                	mv	a1,a4
    800010fa:	fef616e3          	bne	a2,a5,800010e6 <get_next_process+0x20>
    800010fe:	8082                	ret

0000000080001100 <scheduler_start>:
    80001100:	1141                	addi	sp,sp,-16
    80001102:	4785                	li	a5,1
    80001104:	4509                	li	a0,2
    80001106:	e406                	sd	ra,8(sp)
    80001108:	00003717          	auipc	a4,0x3
    8000110c:	0af72023          	sw	a5,160(a4) # 800041a8 <scheduler_running>
    80001110:	d65ff0ef          	jal	80000e74 <get_process_by_pid>
    80001114:	c911                	beqz	a0,80001128 <scheduler_start+0x28>
    80001116:	e022                	sd	s0,0(sp)
    80001118:	4789                	li	a5,2
    8000111a:	d15c                	sw	a5,36(a0)
    8000111c:	842a                	mv	s0,a0
    8000111e:	d4dff0ef          	jal	80000e6a <set_current_process>
    80001122:	603c                	ld	a5,64(s0)
    80001124:	9782                	jalr	a5
    80001126:	6402                	ld	s0,0(sp)
    80001128:	60a2                	ld	ra,8(sp)
    8000112a:	00001517          	auipc	a0,0x1
    8000112e:	fb650513          	addi	a0,a0,-74 # 800020e0 <strcat+0x990>
    80001132:	0141                	addi	sp,sp,16
    80001134:	86dff06f          	j	800009a0 <uart_puts>

0000000080001138 <schedule>:
    80001138:	00003797          	auipc	a5,0x3
    8000113c:	0707a783          	lw	a5,112(a5) # 800041a8 <scheduler_running>
    80001140:	e391                	bnez	a5,80001144 <schedule+0xc>
    80001142:	8082                	ret
    80001144:	bd55                	j	80000ff8 <process_wake_sleeping>

0000000080001146 <yield>:
    80001146:	00003797          	auipc	a5,0x3
    8000114a:	0627a783          	lw	a5,98(a5) # 800041a8 <scheduler_running>
    8000114e:	e391                	bnez	a5,80001152 <yield+0xc>
    80001150:	8082                	ret
    80001152:	b55d                	j	80000ff8 <process_wake_sleeping>

0000000080001154 <syscall_exit>:
    80001154:	4885                	li	a7,1
    80001156:	852a                	mv	a0,a0
    80001158:	00000073          	ecall
    8000115c:	8082                	ret

000000008000115e <syscall_write>:
    8000115e:	4889                	li	a7,2
    80001160:	852a                	mv	a0,a0
    80001162:	85ae                	mv	a1,a1
    80001164:	8632                	mv	a2,a2
    80001166:	00000073          	ecall
    8000116a:	852a                	mv	a0,a0
    8000116c:	2501                	sext.w	a0,a0
    8000116e:	8082                	ret

0000000080001170 <syscall_read>:
    80001170:	488d                	li	a7,3
    80001172:	852a                	mv	a0,a0
    80001174:	85ae                	mv	a1,a1
    80001176:	8632                	mv	a2,a2
    80001178:	00000073          	ecall
    8000117c:	852a                	mv	a0,a0
    8000117e:	2501                	sext.w	a0,a0
    80001180:	8082                	ret

0000000080001182 <syscall_sleep>:
    80001182:	67e1                	lui	a5,0x18
    80001184:	6a078793          	addi	a5,a5,1696 # 186a0 <_start-0x7ffe7960>
    80001188:	02f50533          	mul	a0,a0,a5
    8000118c:	1141                	addi	sp,sp,-16
    8000118e:	e406                	sd	ra,8(sp)
    80001190:	e4dff0ef          	jal	80000fdc <process_sleep>
    80001194:	60a2                	ld	ra,8(sp)
    80001196:	0141                	addi	sp,sp,16
    80001198:	b745                	j	80001138 <schedule>

000000008000119a <syscall_getpid>:
    8000119a:	4895                	li	a7,5
    8000119c:	00000073          	ecall
    800011a0:	852a                	mv	a0,a0
    800011a2:	2501                	sext.w	a0,a0
    800011a4:	8082                	ret

00000000800011a6 <syscall_exec>:
    800011a6:	1101                	addi	sp,sp,-32
    800011a8:	e426                	sd	s1,8(sp)
    800011aa:	ec06                	sd	ra,24(sp)
    800011ac:	84aa                	mv	s1,a0
    800011ae:	28e000ef          	jal	8000143c <fs_open>
    800011b2:	c539                	beqz	a0,80001200 <syscall_exec+0x5a>
    800011b4:	e822                	sd	s0,16(sp)
    800011b6:	842a                	mv	s0,a0
    800011b8:	00001517          	auipc	a0,0x1
    800011bc:	f6050513          	addi	a0,a0,-160 # 80002118 <strcat+0x9c8>
    800011c0:	fe0ff0ef          	jal	800009a0 <uart_puts>
    800011c4:	8526                	mv	a0,s1
    800011c6:	fdaff0ef          	jal	800009a0 <uart_puts>
    800011ca:	00001517          	auipc	a0,0x1
    800011ce:	ef650513          	addi	a0,a0,-266 # 800020c0 <strcat+0x970>
    800011d2:	fceff0ef          	jal	800009a0 <uart_puts>
    800011d6:	6428                	ld	a0,72(s0)
    800011d8:	8a7ff0ef          	jal	80000a7e <uart_put_dec>
    800011dc:	00001517          	auipc	a0,0x1
    800011e0:	f4c50513          	addi	a0,a0,-180 # 80002128 <strcat+0x9d8>
    800011e4:	fbcff0ef          	jal	800009a0 <uart_puts>
    800011e8:	00001517          	auipc	a0,0x1
    800011ec:	f5050513          	addi	a0,a0,-176 # 80002138 <strcat+0x9e8>
    800011f0:	fb0ff0ef          	jal	800009a0 <uart_puts>
    800011f4:	6442                	ld	s0,16(sp)
    800011f6:	4501                	li	a0,0
    800011f8:	60e2                	ld	ra,24(sp)
    800011fa:	64a2                	ld	s1,8(sp)
    800011fc:	6105                	addi	sp,sp,32
    800011fe:	8082                	ret
    80001200:	00001517          	auipc	a0,0x1
    80001204:	f0850513          	addi	a0,a0,-248 # 80002108 <strcat+0x9b8>
    80001208:	f98ff0ef          	jal	800009a0 <uart_puts>
    8000120c:	8526                	mv	a0,s1
    8000120e:	f92ff0ef          	jal	800009a0 <uart_puts>
    80001212:	00000517          	auipc	a0,0x0
    80001216:	63650513          	addi	a0,a0,1590 # 80001848 <strcat+0xf8>
    8000121a:	f86ff0ef          	jal	800009a0 <uart_puts>
    8000121e:	557d                	li	a0,-1
    80001220:	bfe1                	j	800011f8 <syscall_exec+0x52>

0000000080001222 <handle_syscall>:
    80001222:	7179                	addi	sp,sp,-48
    80001224:	e44e                	sd	s3,8(sp)
    80001226:	08853983          	ld	s3,136(a0)
    8000122a:	f022                	sd	s0,32(sp)
    8000122c:	ec26                	sd	s1,24(sp)
    8000122e:	e84a                	sd	s2,16(sp)
    80001230:	e052                	sd	s4,0(sp)
    80001232:	f406                	sd	ra,40(sp)
    80001234:	47a1                	li	a5,8
    80001236:	05053903          	ld	s2,80(a0)
    8000123a:	05853a03          	ld	s4,88(a0)
    8000123e:	7124                	ld	s1,96(a0)
    80001240:	842a                	mv	s0,a0
    80001242:	0b37e463          	bltu	a5,s3,800012ea <handle_syscall+0xc8>
    80001246:	00001717          	auipc	a4,0x1
    8000124a:	00a70713          	addi	a4,a4,10 # 80002250 <strcat+0xb00>
    8000124e:	00299793          	slli	a5,s3,0x2
    80001252:	97ba                	add	a5,a5,a4
    80001254:	439c                	lw	a5,0(a5)
    80001256:	97ba                	add	a5,a5,a4
    80001258:	8782                	jr	a5
    8000125a:	6561                	lui	a0,0x18
    8000125c:	6a050513          	addi	a0,a0,1696 # 186a0 <_start-0x7ffe7960>
    80001260:	02a90533          	mul	a0,s2,a0
    80001264:	d79ff0ef          	jal	80000fdc <process_sleep>
    80001268:	ed1ff0ef          	jal	80001138 <schedule>
    8000126c:	4481                	li	s1,0
    8000126e:	e824                	sd	s1,80(s0)
    80001270:	70a2                	ld	ra,40(sp)
    80001272:	7402                	ld	s0,32(sp)
    80001274:	64e2                	ld	s1,24(sp)
    80001276:	6942                	ld	s2,16(sp)
    80001278:	69a2                	ld	s3,8(sp)
    8000127a:	6a02                	ld	s4,0(sp)
    8000127c:	6145                	addi	sp,sp,48
    8000127e:	8082                	ret
    80001280:	0009051b          	sext.w	a0,s2
    80001284:	db5ff0ef          	jal	80001038 <process_exit>
    80001288:	b7d5                	j	8000126c <handle_syscall+0x4a>
    8000128a:	4785                	li	a5,1
    8000128c:	fef910e3          	bne	s2,a5,8000126c <handle_syscall+0x4a>
    80001290:	dcf1                	beqz	s1,8000126c <handle_syscall+0x4a>
    80001292:	009a0933          	add	s2,s4,s1
    80001296:	000a4503          	lbu	a0,0(s4)
    8000129a:	0a05                	addi	s4,s4,1
    8000129c:	ed2ff0ef          	jal	8000096e <uart_putc>
    800012a0:	ff2a1be3          	bne	s4,s2,80001296 <handle_syscall+0x74>
    800012a4:	b7e9                	j	8000126e <handle_syscall+0x4c>
    800012a6:	fc0913e3          	bnez	s2,8000126c <handle_syscall+0x4a>
    800012aa:	d0e9                	beqz	s1,8000126c <handle_syscall+0x4a>
    800012ac:	49a9                	li	s3,10
    800012ae:	a019                	j	800012b4 <handle_syscall+0x92>
    800012b0:	fa990ee3          	beq	s2,s1,8000126c <handle_syscall+0x4a>
    800012b4:	ed4ff0ef          	jal	80000988 <uart_getc>
    800012b8:	012a07b3          	add	a5,s4,s2
    800012bc:	00a78023          	sb	a0,0(a5)
    800012c0:	0905                	addi	s2,s2,1
    800012c2:	ff3517e3          	bne	a0,s3,800012b0 <handle_syscall+0x8e>
    800012c6:	84ca                	mv	s1,s2
    800012c8:	b75d                	j	8000126e <handle_syscall+0x4c>
    800012ca:	b97ff0ef          	jal	80000e60 <get_current_process>
    800012ce:	dd59                	beqz	a0,8000126c <handle_syscall+0x4a>
    800012d0:	4104                	lw	s1,0(a0)
    800012d2:	bf71                	j	8000126e <handle_syscall+0x4c>
    800012d4:	854a                	mv	a0,s2
    800012d6:	ed1ff0ef          	jal	800011a6 <syscall_exec>
    800012da:	84aa                	mv	s1,a0
    800012dc:	bf49                	j	8000126e <handle_syscall+0x4c>
    800012de:	854a                	mv	a0,s2
    800012e0:	15c000ef          	jal	8000143c <fs_open>
    800012e4:	84aa                	mv	s1,a0
    800012e6:	f541                	bnez	a0,8000126e <handle_syscall+0x4c>
    800012e8:	b751                	j	8000126c <handle_syscall+0x4a>
    800012ea:	00001517          	auipc	a0,0x1
    800012ee:	e6e50513          	addi	a0,a0,-402 # 80002158 <strcat+0xa08>
    800012f2:	eaeff0ef          	jal	800009a0 <uart_puts>
    800012f6:	854e                	mv	a0,s3
    800012f8:	eecff0ef          	jal	800009e4 <uart_put_hex>
    800012fc:	00000517          	auipc	a0,0x0
    80001300:	54c50513          	addi	a0,a0,1356 # 80001848 <strcat+0xf8>
    80001304:	e9cff0ef          	jal	800009a0 <uart_puts>
    80001308:	54fd                	li	s1,-1
    8000130a:	b795                	j	8000126e <handle_syscall+0x4c>

000000008000130c <fs_init>:
    8000130c:	00002797          	auipc	a5,0x2
    80001310:	a6c78793          	addi	a5,a5,-1428 # 80002d78 <files>
    80001314:	00003717          	auipc	a4,0x3
    80001318:	e6470713          	addi	a4,a4,-412 # 80004178 <total_free>
    8000131c:	00078023          	sb	zero,0(a5)
    80001320:	0407b023          	sd	zero,64(a5)
    80001324:	0407b423          	sd	zero,72(a5)
    80001328:	05078793          	addi	a5,a5,80
    8000132c:	fee798e3          	bne	a5,a4,8000131c <fs_init+0x10>
    80001330:	00003797          	auipc	a5,0x3
    80001334:	e607ae23          	sw	zero,-388(a5) # 800041ac <num_files>
    80001338:	8082                	ret

000000008000133a <fs_create_file>:
    8000133a:	7139                	addi	sp,sp,-64
    8000133c:	ec4e                	sd	s3,24(sp)
    8000133e:	00003997          	auipc	s3,0x3
    80001342:	e6e98993          	addi	s3,s3,-402 # 800041ac <num_files>
    80001346:	0009a783          	lw	a5,0(s3)
    8000134a:	fc06                	sd	ra,56(sp)
    8000134c:	03f00713          	li	a4,63
    80001350:	0cf74963          	blt	a4,a5,80001422 <fs_create_file+0xe8>
    80001354:	f822                	sd	s0,48(sp)
    80001356:	f426                	sd	s1,40(sp)
    80001358:	f04a                	sd	s2,32(sp)
    8000135a:	e852                	sd	s4,16(sp)
    8000135c:	e456                	sd	s5,8(sp)
    8000135e:	e05a                	sd	s6,0(sp)
    80001360:	00002a17          	auipc	s4,0x2
    80001364:	a18a0a13          	addi	s4,s4,-1512 # 80002d78 <files>
    80001368:	892a                	mv	s2,a0
    8000136a:	8b2e                	mv	s6,a1
    8000136c:	8ab2                	mv	s5,a2
    8000136e:	84d2                	mv	s1,s4
    80001370:	4401                	li	s0,0
    80001372:	00f04963          	bgtz	a5,80001384 <fs_create_file+0x4a>
    80001376:	a0b9                	j	800013c4 <fs_create_file+0x8a>
    80001378:	0009a783          	lw	a5,0(s3)
    8000137c:	05048493          	addi	s1,s1,80
    80001380:	04f45263          	bge	s0,a5,800013c4 <fs_create_file+0x8a>
    80001384:	85ca                	mv	a1,s2
    80001386:	8526                	mv	a0,s1
    80001388:	316000ef          	jal	8000169e <strcmp>
    8000138c:	2405                	addiw	s0,s0,1
    8000138e:	f56d                	bnez	a0,80001378 <fs_create_file+0x3e>
    80001390:	00001517          	auipc	a0,0x1
    80001394:	df850513          	addi	a0,a0,-520 # 80002188 <strcat+0xa38>
    80001398:	e08ff0ef          	jal	800009a0 <uart_puts>
    8000139c:	854a                	mv	a0,s2
    8000139e:	e02ff0ef          	jal	800009a0 <uart_puts>
    800013a2:	00000517          	auipc	a0,0x0
    800013a6:	4a650513          	addi	a0,a0,1190 # 80001848 <strcat+0xf8>
    800013aa:	df6ff0ef          	jal	800009a0 <uart_puts>
    800013ae:	7442                	ld	s0,48(sp)
    800013b0:	74a2                	ld	s1,40(sp)
    800013b2:	7902                	ld	s2,32(sp)
    800013b4:	6a42                	ld	s4,16(sp)
    800013b6:	6aa2                	ld	s5,8(sp)
    800013b8:	6b02                	ld	s6,0(sp)
    800013ba:	557d                	li	a0,-1
    800013bc:	70e2                	ld	ra,56(sp)
    800013be:	69e2                	ld	s3,24(sp)
    800013c0:	6121                	addi	sp,sp,64
    800013c2:	8082                	ret
    800013c4:	00279713          	slli	a4,a5,0x2
    800013c8:	97ba                	add	a5,a5,a4
    800013ca:	0792                	slli	a5,a5,0x4
    800013cc:	9a3e                	add	s4,s4,a5
    800013ce:	03f00613          	li	a2,63
    800013d2:	85ca                	mv	a1,s2
    800013d4:	8552                	mv	a0,s4
    800013d6:	34a000ef          	jal	80001720 <strncpy>
    800013da:	001a8513          	addi	a0,s5,1
    800013de:	020a0fa3          	sb	zero,63(s4)
    800013e2:	055a3423          	sd	s5,72(s4)
    800013e6:	fb8ff0ef          	jal	80000b9e <kmalloc>
    800013ea:	04aa3023          	sd	a0,64(s4)
    800013ee:	c131                	beqz	a0,80001432 <fs_create_file+0xf8>
    800013f0:	8656                	mv	a2,s5
    800013f2:	85da                	mv	a1,s6
    800013f4:	8dbff0ef          	jal	80000cce <memcpy>
    800013f8:	040a3703          	ld	a4,64(s4)
    800013fc:	0009a783          	lw	a5,0(s3)
    80001400:	4501                	li	a0,0
    80001402:	9756                	add	a4,a4,s5
    80001404:	00070023          	sb	zero,0(a4)
    80001408:	7442                	ld	s0,48(sp)
    8000140a:	70e2                	ld	ra,56(sp)
    8000140c:	2785                	addiw	a5,a5,1
    8000140e:	00f9a023          	sw	a5,0(s3)
    80001412:	74a2                	ld	s1,40(sp)
    80001414:	7902                	ld	s2,32(sp)
    80001416:	6a42                	ld	s4,16(sp)
    80001418:	6aa2                	ld	s5,8(sp)
    8000141a:	6b02                	ld	s6,0(sp)
    8000141c:	69e2                	ld	s3,24(sp)
    8000141e:	6121                	addi	sp,sp,64
    80001420:	8082                	ret
    80001422:	00001517          	auipc	a0,0x1
    80001426:	d4e50513          	addi	a0,a0,-690 # 80002170 <strcat+0xa20>
    8000142a:	d76ff0ef          	jal	800009a0 <uart_puts>
    8000142e:	557d                	li	a0,-1
    80001430:	b771                	j	800013bc <fs_create_file+0x82>
    80001432:	00001517          	auipc	a0,0x1
    80001436:	d7650513          	addi	a0,a0,-650 # 800021a8 <strcat+0xa58>
    8000143a:	bf85                	j	800013aa <fs_create_file+0x70>

000000008000143c <fs_open>:
    8000143c:	7179                	addi	sp,sp,-48
    8000143e:	e052                	sd	s4,0(sp)
    80001440:	00003a17          	auipc	s4,0x3
    80001444:	d6ca0a13          	addi	s4,s4,-660 # 800041ac <num_files>
    80001448:	000a2783          	lw	a5,0(s4)
    8000144c:	f406                	sd	ra,40(sp)
    8000144e:	e44e                	sd	s3,8(sp)
    80001450:	04f05563          	blez	a5,8000149a <fs_open+0x5e>
    80001454:	f022                	sd	s0,32(sp)
    80001456:	ec26                	sd	s1,24(sp)
    80001458:	e84a                	sd	s2,16(sp)
    8000145a:	00002417          	auipc	s0,0x2
    8000145e:	91e40413          	addi	s0,s0,-1762 # 80002d78 <files>
    80001462:	892a                	mv	s2,a0
    80001464:	4481                	li	s1,0
    80001466:	a039                	j	80001474 <fs_open+0x38>
    80001468:	000a2783          	lw	a5,0(s4)
    8000146c:	05040413          	addi	s0,s0,80
    80001470:	02f4d263          	bge	s1,a5,80001494 <fs_open+0x58>
    80001474:	85ca                	mv	a1,s2
    80001476:	8522                	mv	a0,s0
    80001478:	226000ef          	jal	8000169e <strcmp>
    8000147c:	89a2                	mv	s3,s0
    8000147e:	2485                	addiw	s1,s1,1
    80001480:	f565                	bnez	a0,80001468 <fs_open+0x2c>
    80001482:	7402                	ld	s0,32(sp)
    80001484:	70a2                	ld	ra,40(sp)
    80001486:	64e2                	ld	s1,24(sp)
    80001488:	6942                	ld	s2,16(sp)
    8000148a:	6a02                	ld	s4,0(sp)
    8000148c:	854e                	mv	a0,s3
    8000148e:	69a2                	ld	s3,8(sp)
    80001490:	6145                	addi	sp,sp,48
    80001492:	8082                	ret
    80001494:	7402                	ld	s0,32(sp)
    80001496:	64e2                	ld	s1,24(sp)
    80001498:	6942                	ld	s2,16(sp)
    8000149a:	70a2                	ld	ra,40(sp)
    8000149c:	4981                	li	s3,0
    8000149e:	6a02                	ld	s4,0(sp)
    800014a0:	854e                	mv	a0,s3
    800014a2:	69a2                	ld	s3,8(sp)
    800014a4:	6145                	addi	sp,sp,48
    800014a6:	8082                	ret

00000000800014a8 <fs_list_files>:
    800014a8:	715d                	addi	sp,sp,-80
    800014aa:	00001517          	auipc	a0,0x1
    800014ae:	d2e50513          	addi	a0,a0,-722 # 800021d8 <strcat+0xa88>
    800014b2:	e486                	sd	ra,72(sp)
    800014b4:	f052                	sd	s4,32(sp)
    800014b6:	ceaff0ef          	jal	800009a0 <uart_puts>
    800014ba:	00001517          	auipc	a0,0x1
    800014be:	d2650513          	addi	a0,a0,-730 # 800021e0 <strcat+0xa90>
    800014c2:	cdeff0ef          	jal	800009a0 <uart_puts>
    800014c6:	00001517          	auipc	a0,0x1
    800014ca:	d3a50513          	addi	a0,a0,-710 # 80002200 <strcat+0xab0>
    800014ce:	cd2ff0ef          	jal	800009a0 <uart_puts>
    800014d2:	00003a17          	auipc	s4,0x3
    800014d6:	cdaa0a13          	addi	s4,s4,-806 # 800041ac <num_files>
    800014da:	000a2783          	lw	a5,0(s4)
    800014de:	c7c9                	beqz	a5,80001568 <fs_list_files+0xc0>
    800014e0:	f84a                	sd	s2,48(sp)
    800014e2:	f44e                	sd	s3,40(sp)
    800014e4:	00002917          	auipc	s2,0x2
    800014e8:	89490913          	addi	s2,s2,-1900 # 80002d78 <files>
    800014ec:	4981                	li	s3,0
    800014ee:	06f05763          	blez	a5,8000155c <fs_list_files+0xb4>
    800014f2:	fc26                	sd	s1,56(sp)
    800014f4:	ec56                	sd	s5,24(sp)
    800014f6:	e85a                	sd	s6,16(sp)
    800014f8:	e45e                	sd	s7,8(sp)
    800014fa:	e0a2                	sd	s0,64(sp)
    800014fc:	00001b97          	auipc	s7,0x1
    80001500:	b94b8b93          	addi	s7,s7,-1132 # 80002090 <strcat+0x940>
    80001504:	4b4d                	li	s6,19
    80001506:	44d1                	li	s1,20
    80001508:	00000a97          	auipc	s5,0x0
    8000150c:	340a8a93          	addi	s5,s5,832 # 80001848 <strcat+0xf8>
    80001510:	855e                	mv	a0,s7
    80001512:	c8eff0ef          	jal	800009a0 <uart_puts>
    80001516:	854a                	mv	a0,s2
    80001518:	c88ff0ef          	jal	800009a0 <uart_puts>
    8000151c:	854a                	mv	a0,s2
    8000151e:	160000ef          	jal	8000167e <strlen>
    80001522:	842a                	mv	s0,a0
    80001524:	00ab4963          	blt	s6,a0,80001536 <fs_list_files+0x8e>
    80001528:	02000513          	li	a0,32
    8000152c:	2405                	addiw	s0,s0,1
    8000152e:	c40ff0ef          	jal	8000096e <uart_putc>
    80001532:	fe941be3          	bne	s0,s1,80001528 <fs_list_files+0x80>
    80001536:	04893503          	ld	a0,72(s2)
    8000153a:	2985                	addiw	s3,s3,1
    8000153c:	05090913          	addi	s2,s2,80
    80001540:	d3eff0ef          	jal	80000a7e <uart_put_dec>
    80001544:	8556                	mv	a0,s5
    80001546:	c5aff0ef          	jal	800009a0 <uart_puts>
    8000154a:	000a2783          	lw	a5,0(s4)
    8000154e:	fcf9c1e3          	blt	s3,a5,80001510 <fs_list_files+0x68>
    80001552:	6406                	ld	s0,64(sp)
    80001554:	74e2                	ld	s1,56(sp)
    80001556:	6ae2                	ld	s5,24(sp)
    80001558:	6b42                	ld	s6,16(sp)
    8000155a:	6ba2                	ld	s7,8(sp)
    8000155c:	60a6                	ld	ra,72(sp)
    8000155e:	7942                	ld	s2,48(sp)
    80001560:	79a2                	ld	s3,40(sp)
    80001562:	7a02                	ld	s4,32(sp)
    80001564:	6161                	addi	sp,sp,80
    80001566:	8082                	ret
    80001568:	60a6                	ld	ra,72(sp)
    8000156a:	7a02                	ld	s4,32(sp)
    8000156c:	00001517          	auipc	a0,0x1
    80001570:	cb450513          	addi	a0,a0,-844 # 80002220 <strcat+0xad0>
    80001574:	6161                	addi	sp,sp,80
    80001576:	c2aff06f          	j	800009a0 <uart_puts>

000000008000157a <fs_delete_file>:
    8000157a:	7139                	addi	sp,sp,-64
    8000157c:	e456                	sd	s5,8(sp)
    8000157e:	00003a97          	auipc	s5,0x3
    80001582:	c2ea8a93          	addi	s5,s5,-978 # 800041ac <num_files>
    80001586:	000aa783          	lw	a5,0(s5)
    8000158a:	fc06                	sd	ra,56(sp)
    8000158c:	f426                	sd	s1,40(sp)
    8000158e:	0ef05163          	blez	a5,80001670 <fs_delete_file+0xf6>
    80001592:	f822                	sd	s0,48(sp)
    80001594:	00001417          	auipc	s0,0x1
    80001598:	7e440413          	addi	s0,s0,2020 # 80002d78 <files>
    8000159c:	f04a                	sd	s2,32(sp)
    8000159e:	ec4e                	sd	s3,24(sp)
    800015a0:	e852                	sd	s4,16(sp)
    800015a2:	89a2                	mv	s3,s0
    800015a4:	8a2a                	mv	s4,a0
    800015a6:	4901                	li	s2,0
    800015a8:	a801                	j	800015b8 <fs_delete_file+0x3e>
    800015aa:	000aa783          	lw	a5,0(s5)
    800015ae:	2905                	addiw	s2,s2,1
    800015b0:	05098993          	addi	s3,s3,80
    800015b4:	0af95a63          	bge	s2,a5,80001668 <fs_delete_file+0xee>
    800015b8:	85d2                	mv	a1,s4
    800015ba:	854e                	mv	a0,s3
    800015bc:	0e2000ef          	jal	8000169e <strcmp>
    800015c0:	84aa                	mv	s1,a0
    800015c2:	f565                	bnez	a0,800015aa <fs_delete_file+0x30>
    800015c4:	00291993          	slli	s3,s2,0x2
    800015c8:	012987b3          	add	a5,s3,s2
    800015cc:	0792                	slli	a5,a5,0x4
    800015ce:	97a2                	add	a5,a5,s0
    800015d0:	63a8                	ld	a0,64(a5)
    800015d2:	c119                	beqz	a0,800015d8 <fs_delete_file+0x5e>
    800015d4:	e6aff0ef          	jal	80000c3e <kfree>
    800015d8:	000aa783          	lw	a5,0(s5)
    800015dc:	fff7871b          	addiw	a4,a5,-1
    800015e0:	8fba                	mv	t6,a4
    800015e2:	06e95763          	bge	s2,a4,80001650 <fs_delete_file+0xd6>
    800015e6:	37f9                	addiw	a5,a5,-2
    800015e8:	412787bb          	subw	a5,a5,s2
    800015ec:	1782                	slli	a5,a5,0x20
    800015ee:	9381                	srli	a5,a5,0x20
    800015f0:	97ca                	add	a5,a5,s2
    800015f2:	00279f13          	slli	t5,a5,0x2
    800015f6:	9f3e                	add	t5,t5,a5
    800015f8:	99ca                	add	s3,s3,s2
    800015fa:	0992                	slli	s3,s3,0x4
    800015fc:	0f12                	slli	t5,t5,0x4
    800015fe:	00001717          	auipc	a4,0x1
    80001602:	7ca70713          	addi	a4,a4,1994 # 80002dc8 <files+0x50>
    80001606:	013407b3          	add	a5,s0,s3
    8000160a:	9f3a                	add	t5,t5,a4
    8000160c:	0507be83          	ld	t4,80(a5)
    80001610:	0587be03          	ld	t3,88(a5)
    80001614:	0607b303          	ld	t1,96(a5)
    80001618:	0687b883          	ld	a7,104(a5)
    8000161c:	0707b803          	ld	a6,112(a5)
    80001620:	7fa8                	ld	a0,120(a5)
    80001622:	63cc                	ld	a1,128(a5)
    80001624:	67d0                	ld	a2,136(a5)
    80001626:	6bd4                	ld	a3,144(a5)
    80001628:	6fd8                	ld	a4,152(a5)
    8000162a:	01d7b023          	sd	t4,0(a5)
    8000162e:	01c7b423          	sd	t3,8(a5)
    80001632:	0067b823          	sd	t1,16(a5)
    80001636:	0117bc23          	sd	a7,24(a5)
    8000163a:	0307b023          	sd	a6,32(a5)
    8000163e:	f788                	sd	a0,40(a5)
    80001640:	fb8c                	sd	a1,48(a5)
    80001642:	ff90                	sd	a2,56(a5)
    80001644:	e3b4                	sd	a3,64(a5)
    80001646:	e7b8                	sd	a4,72(a5)
    80001648:	05078793          	addi	a5,a5,80
    8000164c:	fde790e3          	bne	a5,t5,8000160c <fs_delete_file+0x92>
    80001650:	7442                	ld	s0,48(sp)
    80001652:	70e2                	ld	ra,56(sp)
    80001654:	01faa023          	sw	t6,0(s5)
    80001658:	7902                	ld	s2,32(sp)
    8000165a:	69e2                	ld	s3,24(sp)
    8000165c:	6a42                	ld	s4,16(sp)
    8000165e:	6aa2                	ld	s5,8(sp)
    80001660:	8526                	mv	a0,s1
    80001662:	74a2                	ld	s1,40(sp)
    80001664:	6121                	addi	sp,sp,64
    80001666:	8082                	ret
    80001668:	7442                	ld	s0,48(sp)
    8000166a:	7902                	ld	s2,32(sp)
    8000166c:	69e2                	ld	s3,24(sp)
    8000166e:	6a42                	ld	s4,16(sp)
    80001670:	70e2                	ld	ra,56(sp)
    80001672:	54fd                	li	s1,-1
    80001674:	6aa2                	ld	s5,8(sp)
    80001676:	8526                	mv	a0,s1
    80001678:	74a2                	ld	s1,40(sp)
    8000167a:	6121                	addi	sp,sp,64
    8000167c:	8082                	ret

000000008000167e <strlen>:
    8000167e:	00054783          	lbu	a5,0(a0)
    80001682:	cf81                	beqz	a5,8000169a <strlen+0x1c>
    80001684:	0505                	addi	a0,a0,1
    80001686:	87aa                	mv	a5,a0
    80001688:	0007c703          	lbu	a4,0(a5)
    8000168c:	86be                	mv	a3,a5
    8000168e:	0785                	addi	a5,a5,1
    80001690:	ff65                	bnez	a4,80001688 <strlen+0xa>
    80001692:	40a6853b          	subw	a0,a3,a0
    80001696:	2505                	addiw	a0,a0,1
    80001698:	8082                	ret
    8000169a:	4501                	li	a0,0
    8000169c:	8082                	ret

000000008000169e <strcmp>:
    8000169e:	00054783          	lbu	a5,0(a0)
    800016a2:	eb81                	bnez	a5,800016b2 <strcmp+0x14>
    800016a4:	a035                	j	800016d0 <strcmp+0x32>
    800016a6:	00f71c63          	bne	a4,a5,800016be <strcmp+0x20>
    800016aa:	00054783          	lbu	a5,0(a0)
    800016ae:	cf81                	beqz	a5,800016c6 <strcmp+0x28>
    800016b0:	85b6                	mv	a1,a3
    800016b2:	0005c703          	lbu	a4,0(a1)
    800016b6:	0505                	addi	a0,a0,1
    800016b8:	00158693          	addi	a3,a1,1
    800016bc:	f76d                	bnez	a4,800016a6 <strcmp+0x8>
    800016be:	0007851b          	sext.w	a0,a5
    800016c2:	9d19                	subw	a0,a0,a4
    800016c4:	8082                	ret
    800016c6:	0015c703          	lbu	a4,1(a1)
    800016ca:	4501                	li	a0,0
    800016cc:	9d19                	subw	a0,a0,a4
    800016ce:	8082                	ret
    800016d0:	0005c703          	lbu	a4,0(a1)
    800016d4:	4501                	li	a0,0
    800016d6:	b7f5                	j	800016c2 <strcmp+0x24>

00000000800016d8 <strncmp>:
    800016d8:	87aa                	mv	a5,a0
    800016da:	00c04b63          	bgtz	a2,800016f0 <strncmp+0x18>
    800016de:	a02d                	j	80001708 <strncmp+0x30>
    800016e0:	0005c683          	lbu	a3,0(a1)
    800016e4:	ca91                	beqz	a3,800016f8 <strncmp+0x20>
    800016e6:	00d71963          	bne	a4,a3,800016f8 <strncmp+0x20>
    800016ea:	0785                	addi	a5,a5,1
    800016ec:	0585                	addi	a1,a1,1
    800016ee:	ca19                	beqz	a2,80001704 <strncmp+0x2c>
    800016f0:	0007c703          	lbu	a4,0(a5)
    800016f4:	367d                	addiw	a2,a2,-1
    800016f6:	f76d                	bnez	a4,800016e0 <strncmp+0x8>
    800016f8:	0007c503          	lbu	a0,0(a5)
    800016fc:	0005c783          	lbu	a5,0(a1)
    80001700:	9d1d                	subw	a0,a0,a5
    80001702:	8082                	ret
    80001704:	4501                	li	a0,0
    80001706:	8082                	ret
    80001708:	4501                	li	a0,0
    8000170a:	f67d                	bnez	a2,800016f8 <strncmp+0x20>
    8000170c:	8082                	ret

000000008000170e <strcpy>:
    8000170e:	87aa                	mv	a5,a0
    80001710:	0005c703          	lbu	a4,0(a1)
    80001714:	0785                	addi	a5,a5,1
    80001716:	0585                	addi	a1,a1,1
    80001718:	fee78fa3          	sb	a4,-1(a5)
    8000171c:	fb75                	bnez	a4,80001710 <strcpy+0x2>
    8000171e:	8082                	ret

0000000080001720 <strncpy>:
    80001720:	87aa                	mv	a5,a0
    80001722:	00c04463          	bgtz	a2,8000172a <strncpy+0xa>
    80001726:	8082                	ret
    80001728:	c21d                	beqz	a2,8000174e <strncpy+0x2e>
    8000172a:	0005c703          	lbu	a4,0(a1)
    8000172e:	0785                	addi	a5,a5,1
    80001730:	86b2                	mv	a3,a2
    80001732:	fee78fa3          	sb	a4,-1(a5)
    80001736:	0585                	addi	a1,a1,1
    80001738:	367d                	addiw	a2,a2,-1
    8000173a:	f77d                	bnez	a4,80001728 <strncpy+0x8>
    8000173c:	1682                	slli	a3,a3,0x20
    8000173e:	9281                	srli	a3,a3,0x20
    80001740:	96be                	add	a3,a3,a5
    80001742:	0785                	addi	a5,a5,1
    80001744:	fe078fa3          	sb	zero,-1(a5)
    80001748:	fed79de3          	bne	a5,a3,80001742 <strncpy+0x22>
    8000174c:	8082                	ret
    8000174e:	8082                	ret

0000000080001750 <strcat>:
    80001750:	00054783          	lbu	a5,0(a0)
    80001754:	cf91                	beqz	a5,80001770 <strcat+0x20>
    80001756:	87aa                	mv	a5,a0
    80001758:	0017c703          	lbu	a4,1(a5)
    8000175c:	0785                	addi	a5,a5,1
    8000175e:	ff6d                	bnez	a4,80001758 <strcat+0x8>
    80001760:	0005c703          	lbu	a4,0(a1)
    80001764:	0785                	addi	a5,a5,1
    80001766:	0585                	addi	a1,a1,1
    80001768:	fee78fa3          	sb	a4,-1(a5)
    8000176c:	fb75                	bnez	a4,80001760 <strcat+0x10>
    8000176e:	8082                	ret
    80001770:	0005c703          	lbu	a4,0(a1)
    80001774:	87aa                	mv	a5,a0
    80001776:	0785                	addi	a5,a5,1
    80001778:	fee78fa3          	sb	a4,-1(a5)
    8000177c:	0585                	addi	a1,a1,1
    8000177e:	f36d                	bnez	a4,80001760 <strcat+0x10>
    80001780:	8082                	ret
